################################################################################
#                                                                              #
#      IAR Universal Linker V4.60I/386                                         #
#                                                                              #
#           Link time     =  23/Nov/2009  22:48:07                             #
#           Target CPU    =  ARM                                               #
#           List file     =  "E:\My File\other\DSO\DS0201_OpenSource\DS0201_AP #
#                            P\project\EWARM\Debug_FLASH\List\DS0201.map"      #
#           Output file 1 =  "E:\My File\other\DSO\DS0201_OpenSource\DS0201_AP #
#                            P\project\EWARM\Debug_FLASH\Exe\DS0201.d79"       #
#                            Format: debug                                     #
#                            UBROF version 10.0.2                              #
#                            Using library modules for C-SPY (-rt)             #
#           Output file 2 =  "E:\My File\other\DSO\DS0201_OpenSource\DS0201_AP #
#                            P\project\EWARM\Debug_FLASH\Exe\DS0201.hex"       #
#                            Format: intel-extended, variant: -y(CODE)         #
#           Output file 3 =  "E:\My File\other\DSO\DS0201_OpenSource\DS0201_AP #
#                            P\project\EWARM\Debug_FLASH\Exe\DS0201.sim"       #
#                            Format: simple-code                               #
#           Command line  =  "E:\My File\other\DSO\DS0201_OpenSource\DS0201_AP #
#                            P\project\EWARM\Debug_FLASH\Obj\Calculate.r79"    #
#                            "E:\My File\other\DSO\DS0201_OpenSource\DS0201_AP #
#                            P\project\EWARM\Debug_FLASH\Obj\Files.r79"        #
#                            "E:\My File\other\DSO\DS0201_OpenSource\DS0201_AP #
#                            P\project\EWARM\Debug_FLASH\Obj\Function.r79"     #
#                            "E:\My File\other\DSO\DS0201_OpenSource\DS0201_AP #
#                            P\project\EWARM\Debug_FLASH\Obj\HW_V1_Config.r79" #
#                            "E:\My File\other\DSO\DS0201_OpenSource\DS0201_AP #
#                            P\project\EWARM\Debug_FLASH\Obj\Lcd.r79"          #
#                            "E:\My File\other\DSO\DS0201_OpenSource\DS0201_AP #
#                            P\project\EWARM\Debug_FLASH\Obj\cortexm3_macro.r7 #
#                            9"                                                #
#                            "E:\My File\other\DSO\DS0201_OpenSource\DS0201_AP #
#                            P\project\EWARM\Debug_FLASH\Obj\main.r79"         #
#                            "E:\My File\other\DSO\DS0201_OpenSource\DS0201_AP #
#                            P\project\EWARM\Debug_FLASH\Obj\memory.r79"       #
#                            "E:\My File\other\DSO\DS0201_OpenSource\DS0201_AP #
#                            P\project\EWARM\Debug_FLASH\Obj\msd.r79"          #
#                            "E:\My File\other\DSO\DS0201_OpenSource\DS0201_AP #
#                            P\project\EWARM\Debug_FLASH\Obj\scsi_data.r79"    #
#                            "E:\My File\other\DSO\DS0201_OpenSource\DS0201_AP #
#                            P\project\EWARM\Debug_FLASH\Obj\stm32f10x_flash.r #
#                            79"                                               #
#                            "E:\My File\other\DSO\DS0201_OpenSource\DS0201_AP #
#                            P\project\EWARM\Debug_FLASH\Obj\stm32f10x_gpio.r7 #
#                            9"                                                #
#                            "E:\My File\other\DSO\DS0201_OpenSource\DS0201_AP #
#                            P\project\EWARM\Debug_FLASH\Obj\stm32f10x_it.r79" #
#                            "E:\My File\other\DSO\DS0201_OpenSource\DS0201_AP #
#                            P\project\EWARM\Debug_FLASH\Obj\stm32f10x_lib.r79 #
#                            "                                                 #
#                            "E:\My File\other\DSO\DS0201_OpenSource\DS0201_AP #
#                            P\project\EWARM\Debug_FLASH\Obj\stm32f10x_nvic.r7 #
#                            9"                                                #
#                            "E:\My File\other\DSO\DS0201_OpenSource\DS0201_AP #
#                            P\project\EWARM\Debug_FLASH\Obj\stm32f10x_rcc.r79 #
#                            "                                                 #
#                            "E:\My File\other\DSO\DS0201_OpenSource\DS0201_AP #
#                            P\project\EWARM\Debug_FLASH\Obj\stm32f10x_spi.r79 #
#                            "                                                 #
#                            "E:\My File\other\DSO\DS0201_OpenSource\DS0201_AP #
#                            P\project\EWARM\Debug_FLASH\Obj\stm32f10x_systick #
#                            .r79"                                             #
#                            "E:\My File\other\DSO\DS0201_OpenSource\DS0201_AP #
#                            P\project\EWARM\Debug_FLASH\Obj\stm32f10x_vector. #
#                            r79"                                              #
#                            "E:\My File\other\DSO\DS0201_OpenSource\DS0201_AP #
#                            P\project\EWARM\Debug_FLASH\Obj\usb_bot.r79"      #
#                            "E:\My File\other\DSO\DS0201_OpenSource\DS0201_AP #
#                            P\project\EWARM\Debug_FLASH\Obj\usb_core.r79"     #
#                            "E:\My File\other\DSO\DS0201_OpenSource\DS0201_AP #
#                            P\project\EWARM\Debug_FLASH\Obj\usb_desc.r79"     #
#                            "E:\My File\other\DSO\DS0201_OpenSource\DS0201_AP #
#                            P\project\EWARM\Debug_FLASH\Obj\usb_endp.r79"     #
#                            "E:\My File\other\DSO\DS0201_OpenSource\DS0201_AP #
#                            P\project\EWARM\Debug_FLASH\Obj\usb_init.r79"     #
#                            "E:\My File\other\DSO\DS0201_OpenSource\DS0201_AP #
#                            P\project\EWARM\Debug_FLASH\Obj\usb_int.r79"      #
#                            "E:\My File\other\DSO\DS0201_OpenSource\DS0201_AP #
#                            P\project\EWARM\Debug_FLASH\Obj\usb_istr.r79"     #
#                            "E:\My File\other\DSO\DS0201_OpenSource\DS0201_AP #
#                            P\project\EWARM\Debug_FLASH\Obj\usb_mem.r79"      #
#                            "E:\My File\other\DSO\DS0201_OpenSource\DS0201_AP #
#                            P\project\EWARM\Debug_FLASH\Obj\usb_prop.r79"     #
#                            "E:\My File\other\DSO\DS0201_OpenSource\DS0201_AP #
#                            P\project\EWARM\Debug_FLASH\Obj\usb_pwr.r79"      #
#                            "E:\My File\other\DSO\DS0201_OpenSource\DS0201_AP #
#                            P\project\EWARM\Debug_FLASH\Obj\usb_regs.r79"     #
#                            "E:\My File\other\DSO\DS0201_OpenSource\DS0201_AP #
#                            P\project\EWARM\Debug_FLASH\Obj\usb_scsi.r79"     #
#                            -o                                                #
#                            "E:\My File\other\DSO\DS0201_OpenSource\DS0201_AP #
#                            P\project\EWARM\Debug_FLASH\Exe\DS0201.d79"       #
#                            -l                                                #
#                            "E:\My File\other\DSO\DS0201_OpenSource\DS0201_AP #
#                            P\project\EWARM\Debug_FLASH\List\DS0201.map"      #
#                            -xms                                              #
#                            "-ID:\Program Files\Embedded Workbench 4.0 Evalua #
#                            tion\ARM\LIB\"                                    #
#                            -f                                                #
#                            "E:\My File\other\DSO\DS0201_OpenSource\DS0201_AP #
#                            P\project\EWARM\lnkarm_flash.xcl"                 #
#                            (-DROMSTART=0x8004000 -DROMEND=0x801FFFF          #
#                            -DRAMSTART=0x20000000 -DRAMEND=0x20004FFF -carm   #
#                            -Z(CODE)INTVEC=ROMSTART-ROMEND                    #
#                            -Z(CODE)ICODE,DIFUNCT=ROMSTART-ROMEND             #
#                            -Z(CODE)SWITAB=ROMSTART-ROMEND                    #
#                            -Z(CODE)CODE=ROMSTART-ROMEND                      #
#                            -Z(CONST)CODE_ID=ROMSTART-ROMEND                  #
#                            -Z(CONST)INITTAB,DATA_ID,DATA_C=ROMSTART-ROMEND   #
#                            -Z(CONST)CHECKSUM=ROMSTART-ROMEND                 #
#                            -Z(DATA)DATA_I,DATA_Z,DATA_N=RAMSTART-RAMEND      #
#                            -Z(DATA)CODE_I=RAMSTART-RAMEND -QCODE_I=CODE_ID   #
#                            -D_CSTACK_SIZE=1000 -D_HEAP_SIZE=200              #
#                            -Z(DATA)CSTACK+_CSTACK_SIZE=RAMSTART-RAMEND       #
#                            -Z(DATA)HEAP+_HEAP_SIZE=RAMSTART-RAMEND           #
#                            -Ointel-extended,(CODE)=.hex) -rt                 #
#                            "D:\Program Files\Embedded Workbench 4.0 Evaluati #
#                            on\ARM\LIB\dl7mptnnl8n.r79"                       #
#                            "-Osimple-code=E:\My File\other\DSO\DS0201_OpenSo #
#                            urce\DS0201_APP\project\EWARM\Debug_FLASH\Exe\DS0 #
#                            201.sim"                                          #
#                            -s __program_start                                #
#                                                                              #
#                        Copyright 1987-2007 IAR Systems. All rights reserved. #
################################################################################





                ****************************************
                *                                      *
                *           CROSS REFERENCE            *
                *                                      *
                ****************************************

       Program entry at :           08004121  Relocatable, from module : ?CMAIN




                ****************************************
                *                                      *
                *            RUNTIME MODEL             *
                *                                      *
                ****************************************

  StackAlign4            = USED
  __cpu_mode             = __pcs__thumb
  __data_model           = absolute
  __dlib_file_descriptor = 0
  __endian               = little
  __rt_version           = 6



                ****************************************
                *                                      *
                *              MODULE MAP              *
                *                                      *
                ****************************************


  DEFINED ABSOLUTE ENTRIES
    *************************************************************************

  DEFINED ABSOLUTE ENTRIES
  PROGRAM MODULE, NAME : ?ABS_ENTRY_MOD

Absolute parts
           ENTRY                   ADDRESS         REF BY
           =====                   =======         ======
           _HEAP_SIZE              00000200 
           _CSTACK_SIZE            00001000 
           RAMEND                  20004FFF 
           RAMSTART                20000000 
           ROMEND                  0801FFFF 
           ROMSTART                08004000 
    *************************************************************************

  FILE NAME : E:\My File\other\DSO\DS0201_OpenSource\DS0201_APP\project\EWARM\Debug_FLASH\Obj\Calculate.r79
  PROGRAM MODULE, NAME : Calculate

  SEGMENTS IN THE MODULE
  ======================
CODE
  Relative segment, address: 08004150 - 08004341 (0x1f2 bytes), align: 2
  Segment part 2.
           ENTRY                   ADDRESS         REF BY
           =====                   =======         ======
           Int32String_sign        08004151        Update_Item (Function)
               stack 1 = 00000000 ( 0000001C )
    -------------------------------------------------------------------------
CODE
  Relative segment, address: 08004344 - 0800451F (0x1dc bytes), align: 2
  Segment part 3.
           ENTRY                   ADDRESS         REF BY
           =====                   =======         ======
           Int32String             08004345        Update_Item (Function)
               stack 1 = 00000000 ( 0000001C )
    -------------------------------------------------------------------------
CODE
  Relative segment, address: 08004520 - 08004523 (0x4 bytes), align: 2
  Segment part 4.             Intra module refs:   Int32String
                                                   Int32String_sign
    -------------------------------------------------------------------------
CODE
  Relative segment, address: 08004524 - 08004527 (0x4 bytes), align: 2
  Segment part 5.             Intra module refs:   Int32String
                                                   Int32String_sign
    -------------------------------------------------------------------------
CODE
  Relative segment, address: 08004528 - 0800452B (0x4 bytes), align: 2
  Segment part 6.             Intra module refs:   Int32String
                                                   Int32String_sign
    -------------------------------------------------------------------------
CODE
  Relative segment, address: 0800452C - 0800452F (0x4 bytes), align: 2
  Segment part 7.             Intra module refs:   Int32String
                                                   Int32String_sign
    -------------------------------------------------------------------------
CODE
  Relative segment, address: 08004530 - 08004533 (0x4 bytes), align: 2
  Segment part 8.             Intra module refs:   Int32String
                                                   Int32String_sign
    -------------------------------------------------------------------------
CODE
  Relative segment, address: 08004534 - 08004537 (0x4 bytes), align: 2
  Segment part 9.             Intra module refs:   Int32String
                                                   Int32String_sign
    -------------------------------------------------------------------------
CODE
  Relative segment, address: 08004538 - 0800457F (0x48 bytes), align: 2
  Segment part 10.
           ENTRY                   ADDRESS         REF BY
           =====                   =======         ======
           Char_to_Str             08004539        Update_Item (Function)
                                                   main (main)
               stack 1 = 00000000 ( 00000004 )

    *************************************************************************

  FILE NAME : E:\My File\other\DSO\DS0201_OpenSource\DS0201_APP\project\EWARM\Debug_FLASH\Obj\Files.r79
  PROGRAM MODULE, NAME : Files

  SEGMENTS IN THE MODULE
  ======================
DATA_Z
  Relative segment, address: 200002C8 - 200002CB (0x4 bytes), align: 2
  Segment part 2.             Intra module refs:   FAT_Info
           ENTRY                   ADDRESS         REF BY
           =====                   =======         ======
           DiskStart               200002C8 
    -------------------------------------------------------------------------
DATA_Z
  Relative segment, address: 200002CC - 200002CF (0x4 bytes), align: 2
  Segment part 3.             Intra module refs:   FAT_Info
           ENTRY                   ADDRESS         REF BY
           =====                   =======         ======
           Hidden_Sec              200002CC 
    -------------------------------------------------------------------------
DATA_Z
  Relative segment, address: 200002D0 - 200002D3 (0x4 bytes), align: 2
  Segment part 4.             Intra module refs:   Segment part 19
           ENTRY                   ADDRESS         REF BY
           =====                   =======         ======
           Root_Addr               200002D0 
    -------------------------------------------------------------------------
DATA_Z
  Relative segment, address: 200002D4 - 200002D7 (0x4 bytes), align: 2
  Segment part 5.             Intra module refs:   Open_File
           ENTRY                   ADDRESS         REF BY
           =====                   =======         ======
           ClusterNum              200002D4 
    -------------------------------------------------------------------------
DATA_Z
  Relative segment, address: 200002D8 - 200002DB (0x4 bytes), align: 2
  Segment part 6.             Intra module refs:   Segment part 23
           ENTRY                   ADDRESS         REF BY
           =====                   =======         ======
           File_Addr               200002D8 
    -------------------------------------------------------------------------
DATA_Z
  Relative segment, address: 20002A50 - 20002A51 (0x2 bytes), align: 1
  Segment part 7.             Intra module refs:   FAT_Info
           ENTRY                   ADDRESS         REF BY
           =====                   =======         ======
           RsvdSecCnt              20002A50 
    -------------------------------------------------------------------------
DATA_Z
  Relative segment, address: 20002A52 - 20002A53 (0x2 bytes), align: 1
  Segment part 8.             Intra module refs:   Segment part 17
           ENTRY                   ADDRESS         REF BY
           =====                   =======         ======
           FAT_Size16              20002A52 
    -------------------------------------------------------------------------
DATA_Z
  Relative segment, address: 20002A54 - 20002A55 (0x2 bytes), align: 1
  Segment part 9.             Intra module refs:   FAT_Info
           ENTRY                   ADDRESS         REF BY
           =====                   =======         ======
           FAT_Size32              20002A54 
    -------------------------------------------------------------------------
DATA_Z
  Relative segment, address: 20002A56 - 20002A57 (0x2 bytes), align: 1
  Segment part 10.            Intra module refs:   Segment part 20
           ENTRY                   ADDRESS         REF BY
           =====                   =======         ======
           SecPerClus              20002A56 
    -------------------------------------------------------------------------
DATA_Z
  Relative segment, address: 20002A58 - 20002A59 (0x2 bytes), align: 1
  Segment part 11.            Intra module refs:   Open_File
           ENTRY                   ADDRESS         REF BY
           =====                   =======         ======
           DirFliePtr              20002A58 
    -------------------------------------------------------------------------
DATA_Z
  Relative segment, address: 20002A5A - 20002A5B (0x2 bytes), align: 1
  Segment part 12.            Intra module refs:   Open_File
           ENTRY                   ADDRESS         REF BY
           =====                   =======         ======
           DirFlieSec              20002A5A 
    -------------------------------------------------------------------------
DATA_Z
  Relative segment, address: 20002A5C - 20002A5D (0x2 bytes), align: 1
  Segment part 13.            Intra module refs:   Open_File
           ENTRY                   ADDRESS         REF BY
           =====                   =======         ======
           DirSecNum               20002A5C 
    -------------------------------------------------------------------------
CODE
  Relative segment, address: 08004580 - 080046DB (0x15c bytes), align: 2
  Segment part 15.
           ENTRY                   ADDRESS         REF BY
           =====                   =======         ======
           FAT_Info                08004581        main (main)
               stack 1 = 00000000 ( 00000008 )
    -------------------------------------------------------------------------
CODE
  Relative segment, address: 080046DC - 0800489F (0x1c4 bytes), align: 2
  Segment part 16.
           ENTRY                   ADDRESS         REF BY
           =====                   =======         ======
           Open_File               080046DD        main (main)
               stack 1 = 00000000 ( 00000014 )
    -------------------------------------------------------------------------
CODE
  Relative segment, address: 080048A0 - 080048A3 (0x4 bytes), align: 2
  Segment part 17.            Intra module refs:   FAT_Info
                                                   Open_File
    -------------------------------------------------------------------------
CODE
  Relative segment, address: 080048A4 - 080048A7 (0x4 bytes), align: 2
  Segment part 18.            Intra module refs:   FAT_Info
                                                   Open_File
    -------------------------------------------------------------------------
CODE
  Relative segment, address: 080048A8 - 080048AB (0x4 bytes), align: 2
  Segment part 19.            Intra module refs:   FAT_Info
                                                   Open_File
    -------------------------------------------------------------------------
CODE
  Relative segment, address: 080048AC - 080048AF (0x4 bytes), align: 2
  Segment part 20.            Intra module refs:   FAT_Info
                                                   Open_File
    -------------------------------------------------------------------------
CODE
  Relative segment, address: 080048B0 - 080048C1 (0x12 bytes), align: 2
  Segment part 21.
           ENTRY                   ADDRESS         REF BY
           =====                   =======         ======
           Read_File               080048B1        main (main)
               stack 1 = 00000000 ( 00000004 )
    -------------------------------------------------------------------------
CODE
  Relative segment, address: 080048C4 - 080048E5 (0x22 bytes), align: 2
  Segment part 22.
           ENTRY                   ADDRESS         REF BY
           =====                   =======         ======
           Write_File              080048C5        main (main)
               stack 1 = 00000000 ( 00000008 )
    -------------------------------------------------------------------------
CODE
  Relative segment, address: 080048E8 - 080048EB (0x4 bytes), align: 2
  Segment part 23.            Intra module refs:   Open_File
                                                   Read_File
                                                   Write_File
    -------------------------------------------------------------------------
CODE
  Relative segment, address: 080048EC - 080048EF (0x4 bytes), align: 2
  Segment part 24.            Intra module refs:   Read_File
                                                   Write_File
    -------------------------------------------------------------------------
INITTAB
  Relative segment, address: 0800B788 - 0800B793 (0xc bytes), align: 2
  Segment part 27. ROOT.
           ENTRY                   ADDRESS         REF BY
           =====                   =======         ======
           ?init?tab?DATA_Z        0800B788 

    *************************************************************************

  FILE NAME : E:\My File\other\DSO\DS0201_OpenSource\DS0201_APP\project\EWARM\Debug_FLASH\Obj\Function.r79
  PROGRAM MODULE, NAME : Function

  SEGMENTS IN THE MODULE
  ======================
DATA_C
  Relative segment, address: 0800BA68 - 0800BA73 (0xc bytes), align: 2
  Segment part 3.             Intra module refs:   Update_Item
    -------------------------------------------------------------------------
DATA_C
  Relative segment, address: 0800BA74 - 0800BA83 (0x10 bytes), align: 2
  Segment part 5.             Intra module refs:   Update_Item
    -------------------------------------------------------------------------
DATA_C
  Relative segment, address: 0800BA84 - 0800BA93 (0x10 bytes), align: 2
  Segment part 6.             Intra module refs:   Update_Item
    -------------------------------------------------------------------------
DATA_C
  Relative segment, address: 0800BA94 - 0800BA9B (0x8 bytes), align: 2
  Segment part 7.             Intra module refs:   Update_Item
    -------------------------------------------------------------------------
DATA_C
  Relative segment, address: 0800BA9C - 0800BAAB (0x10 bytes), align: 2
  Segment part 9.             Intra module refs:   Update_Item
    -------------------------------------------------------------------------
DATA_C
  Relative segment, address: 0800BAAC - 0800BABB (0x10 bytes), align: 2
  Segment part 10.            Intra module refs:   Update_Item
    -------------------------------------------------------------------------
DATA_C
  Relative segment, address: 0800BABC - 0800BACB (0x10 bytes), align: 2
  Segment part 13.            Intra module refs:   Update_Item
    -------------------------------------------------------------------------
DATA_C
  Relative segment, address: 0800BACC - 0800BADB (0x10 bytes), align: 2
  Segment part 14.            Intra module refs:   Update_Item
    -------------------------------------------------------------------------
DATA_C
  Relative segment, address: 0800BADC - 0800BAE3 (0x8 bytes), align: 2
  Segment part 17.            Intra module refs:   Update_Item
    -------------------------------------------------------------------------
DATA_C
  Relative segment, address: 0800BAE4 - 0800BAEB (0x8 bytes), align: 2
  Segment part 25.            Intra module refs:   Update_Item
    -------------------------------------------------------------------------
DATA_C
  Relative segment, address: 0800BAEC - 0800BAFB (0x10 bytes), align: 2
  Segment part 26.            Intra module refs:   Update_Item
    -------------------------------------------------------------------------
DATA_C
  Relative segment, address: 0800BAFC - 0800BB0B (0x10 bytes), align: 2
  Segment part 28.            Intra module refs:   Update_Item
    -------------------------------------------------------------------------
DATA_C
  Relative segment, address: 0800BB0C - 0800BB13 (0x8 bytes), align: 2
  Segment part 31.            Intra module refs:   Update_Item
    -------------------------------------------------------------------------
DATA_C
  Relative segment, address: 0800BB14 - 0800BB1F (0xc bytes), align: 2
  Segment part 33.            Intra module refs:   Update_Item
    -------------------------------------------------------------------------
DATA_C
  Relative segment, address: 0800BB20 - 0800BBFB (0xdc bytes), align: 2
  Segment part 35.            Intra module refs:   Update_Item
           ENTRY                   ADDRESS         REF BY
           =====                   =======         ======
           Item_V                  0800BB20 
    -------------------------------------------------------------------------
DATA_C
  Relative segment, address: 0800BBFC - 0800BC4B (0x50 bytes), align: 2
  Segment part 36.            Intra module refs:   Update_Item
           ENTRY                   ADDRESS         REF BY
           =====                   =======         ======
           V_Scale                 0800BBFC 
    -------------------------------------------------------------------------
DATA_I
  Relative segment, address: 20000000 - 20000027 (0x28 bytes), align: 2
  Segment part 37.            Intra module refs:   Segment part 123
                                                   Segment part 149
           ENTRY                   ADDRESS         REF BY
           =====                   =======         ======
           Km                      20000000 
    -------------------------------------------------------------------------
DATA_C
  Relative segment, address: 0800BC4C - 0800BD53 (0x108 bytes), align: 2
  Segment part 39.            Intra module refs:   Update_Item
           ENTRY                   ADDRESS         REF BY
           =====                   =======         ======
           Item_T                  0800BC4C 
    -------------------------------------------------------------------------
DATA_C
  Relative segment, address: 0800BD54 - 0800BDAB (0x58 bytes), align: 2
  Segment part 40.            Intra module refs:   Segment part 153
                                                   Update_Item
           ENTRY                   ADDRESS         REF BY
           =====                   =======         ======
           T_Scale                 0800BD54 
    -------------------------------------------------------------------------
DATA_C
  Relative segment, address: 0800BDAC - 0800BDD7 (0x2c bytes), align: 2
  Segment part 41.
           ENTRY                   ADDRESS         REF BY
           =====                   =======         ======
           Scan_PSC                0800BDAC        Set_Base (HW_V1_Config)
    -------------------------------------------------------------------------
DATA_C
  Relative segment, address: 0800BDD8 - 0800BE03 (0x2c bytes), align: 2
  Segment part 42.
           ENTRY                   ADDRESS         REF BY
           =====                   =======         ======
           Scan_ARR                0800BDD8        Set_Base (HW_V1_Config)
    -------------------------------------------------------------------------
DATA_C
  Relative segment, address: 0800BE04 - 0800BE2F (0x2c bytes), align: 2
  Segment part 43.            Intra module refs:   Signal_Process
           ENTRY                   ADDRESS         REF BY
           =====                   =======         ======
           Ks                      0800BE04 
    -------------------------------------------------------------------------
DATA_C
  Relative segment, address: 0800BE30 - 0800BE9F (0x70 bytes), align: 2
  Segment part 44.            Intra module refs:   Update_Item
           ENTRY                   ADDRESS         REF BY
           =====                   =======         ======
           Item_F                  0800BE30 
    -------------------------------------------------------------------------
DATA_C
  Relative segment, address: 0800BEA0 - 0800BEDF (0x40 bytes), align: 2
  Segment part 45.            Intra module refs:   Update_Item
           ENTRY                   ADDRESS         REF BY
           =====                   =======         ======
           Fout_PSC                0800BEA0 
    -------------------------------------------------------------------------
DATA_C
  Relative segment, address: 0800BEE0 - 0800BF1F (0x40 bytes), align: 2
  Segment part 46.            Intra module refs:   Update_Item
           ENTRY                   ADDRESS         REF BY
           =====                   =======         ======
           Fout_ARR                0800BEE0        Timer_Configuration (HW_V1_Config)
    -------------------------------------------------------------------------
DATA_Z
  Relative segment, address: 200002DC - 200022DB (0x2000 bytes), align: 2
  Segment part 47.            Intra module refs:   Segment part 124
                                                   Segment part 150
           ENTRY                   ADDRESS         REF BY
           =====                   =======         ======
           Scan_Buffer             200002DC        Segment part 12 (HW_V1_Config)
                                                   Segment part 26 (HW_V1_Config)
                                                   main (main)
    -------------------------------------------------------------------------
DATA_Z
  Relative segment, address: 200022DC - 20002407 (0x12c bytes), align: 2
  Segment part 48.            Intra module refs:   Segment part 130
           ENTRY                   ADDRESS         REF BY
           =====                   =======         ======
           Signal_Buffer           200022DC        main (main)
    -------------------------------------------------------------------------
DATA_Z
  Relative segment, address: 20002408 - 20002533 (0x12c bytes), align: 2
  Segment part 49.            Intra module refs:   Erase_Draw
           ENTRY                   ADDRESS         REF BY
           =====                   =======         ======
           View_Buffer             20002408        Erase_Wave (Lcd)
                                                   main (main)
    -------------------------------------------------------------------------
DATA_I
  Relative segment, address: 20000028 - 20000157 (0x130 bytes), align: 2
  Segment part 50.            Intra module refs:   Erase_Draw
           ENTRY                   ADDRESS         REF BY
           =====                   =======         ======
           Ref_Buffer              20000028        Erase_Wave (Lcd)
                                                   main (main)
    -------------------------------------------------------------------------
DATA_I
  Relative segment, address: 20000158 - 2000017F (0x28 bytes), align: 2
  Segment part 52.            Intra module refs:   Segment part 117
                                                   Segment part 119
                                                   Segment part 122
                                                   Segment part 125
                                                   Segment part 128
                                                   Segment part 134
                                                   Segment part 138
                                                   Segment part 141
                                                   Segment part 146
                                                   Segment part 148
                                                   Segment part 152
                                                   Update_Item
           ENTRY                   ADDRESS         REF BY
           =====                   =======         ======
           Item_Index              20000158        Battery_Detect (HW_V1_Config)
                                                   Draw_View_Area (Lcd)
                                                   Set_Y_Pos (HW_V1_Config)
                                                   Timer_Configuration (HW_V1_Config)
                                                   main (main)
    -------------------------------------------------------------------------
DATA_I
  Relative segment, address: 200002B4 - 200002B5 (0x2 bytes), align: 1
  Segment part 54.            Intra module refs:   Segment part 118
                                                   Segment part 147
                                                   Update_Item
           ENTRY                   ADDRESS         REF BY
           =====                   =======         ======
           vt                      200002B4        Segment part 28 (Lcd)
                                                   Segment part 48 (Lcd)
                                                   Segment part 58 (Lcd)
                                                   main (main)
    -------------------------------------------------------------------------
DATA_I
  Relative segment, address: 200002B6 - 200002B7 (0x2 bytes), align: 1
  Segment part 56.            Intra module refs:   Update_Item
           ENTRY                   ADDRESS         REF BY
           =====                   =======         ======
           v0                      200002B6        Segment part 45 (Lcd)
                                                   Segment part 55 (Lcd)
                                                   Timer_Configuration (HW_V1_Config)
                                                   main (main)
    -------------------------------------------------------------------------
DATA_I
  Relative segment, address: 200002B8 - 200002B9 (0x2 bytes), align: 1
  Segment part 58.            Intra module refs:   Update_Item
           ENTRY                   ADDRESS         REF BY
           =====                   =======         ======
           v1                      200002B8        Segment part 22 (Lcd)
                                                   Segment part 34 (Lcd)
                                                   main (main)
    -------------------------------------------------------------------------
DATA_I
  Relative segment, address: 200002BA - 200002BB (0x2 bytes), align: 1
  Segment part 60.            Intra module refs:   Update_Item
           ENTRY                   ADDRESS         REF BY
           =====                   =======         ======
           v2                      200002BA        Segment part 23 (Lcd)
                                                   Segment part 35 (Lcd)
                                                   main (main)
    -------------------------------------------------------------------------
DATA_I
  Relative segment, address: 200002BC - 200002BD (0x2 bytes), align: 1
  Segment part 62.            Intra module refs:   Segment part 121
                                                   Segment part 133
           ENTRY                   ADDRESS         REF BY
           =====                   =======         ======
           t0                      200002BC        Draw_View_Area (Lcd)
    -------------------------------------------------------------------------
DATA_I
  Relative segment, address: 200002BE - 200002BF (0x2 bytes), align: 1
  Segment part 64.            Intra module refs:   Update_Item
           ENTRY                   ADDRESS         REF BY
           =====                   =======         ======
           t1                      200002BE        Segment part 24 (Lcd)
                                                   Segment part 31 (Lcd)
                                                   main (main)
    -------------------------------------------------------------------------
DATA_I
  Relative segment, address: 200002C0 - 200002C1 (0x2 bytes), align: 1
  Segment part 66.            Intra module refs:   Update_Item
           ENTRY                   ADDRESS         REF BY
           =====                   =======         ======
           t2                      200002C0        Segment part 25 (Lcd)
                                                   Segment part 32 (Lcd)
                                                   main (main)
    -------------------------------------------------------------------------
DATA_I
  Relative segment, address: 200002C2 - 200002C2 (0x1 bytes), align: 0
  Segment part 68.            Intra module refs:   Update_Item
           ENTRY                   ADDRESS         REF BY
           =====                   =======         ======
           Hide_vs                 200002C2        main (main)
    -------------------------------------------------------------------------
DATA_Z
  Relative segment, address: 20002A74 - 20002A74 (0x1 bytes), align: 0
  Segment part 70.            Intra module refs:   Update_Item
           ENTRY                   ADDRESS         REF BY
           =====                   =======         ======
           Hide_vt                 20002A74        Erase_SEG (Lcd)
                                                   main (main)
    -------------------------------------------------------------------------
DATA_I
  Relative segment, address: 200002C3 - 200002C3 (0x1 bytes), align: 0
  Segment part 71.            Intra module refs:   Update_Item
           ENTRY                   ADDRESS         REF BY
           =====                   =======         ======
           Hide_v0                 200002C3        main (main)
    -------------------------------------------------------------------------
DATA_Z
  Relative segment, address: 20002A75 - 20002A75 (0x1 bytes), align: 0
  Segment part 73.            Intra module refs:   Update_Item
           ENTRY                   ADDRESS         REF BY
           =====                   =======         ======
           Hide_v1                 20002A75        Erase_SEG (Lcd)
                                                   main (main)
    -------------------------------------------------------------------------
DATA_Z
  Relative segment, address: 20002A76 - 20002A76 (0x1 bytes), align: 0
  Segment part 74.            Intra module refs:   Update_Item
           ENTRY                   ADDRESS         REF BY
           =====                   =======         ======
           Hide_v2                 20002A76        Erase_SEG (Lcd)
                                                   main (main)
    -------------------------------------------------------------------------
DATA_Z
  Relative segment, address: 20002A77 - 20002A77 (0x1 bytes), align: 0
  Segment part 75.            Intra module refs:   Update_Item
           ENTRY                   ADDRESS         REF BY
           =====                   =======         ======
           Hide_t1                 20002A77        Erase_SEG (Lcd)
                                                   main (main)
    -------------------------------------------------------------------------
DATA_Z
  Relative segment, address: 20002A78 - 20002A78 (0x1 bytes), align: 0
  Segment part 76.            Intra module refs:   Update_Item
           ENTRY                   ADDRESS         REF BY
           =====                   =======         ======
           Hide_t2                 20002A78        Erase_SEG (Lcd)
                                                   main (main)
    -------------------------------------------------------------------------
DATA_Z
  Relative segment, address: 20002A79 - 20002A79 (0x1 bytes), align: 0
  Segment part 77.            Intra module refs:   Erase_Draw
           ENTRY                   ADDRESS         REF BY
           =====                   =======         ======
           Hide_Ref                20002A79        main (main)
    -------------------------------------------------------------------------
DATA_I
  Relative segment, address: 200002C4 - 200002C4 (0x1 bytes), align: 0
  Segment part 78.            Intra module refs:   Update_Item
           ENTRY                   ADDRESS         REF BY
           =====                   =======         ======
           Item                    200002C4        TIM3_IRQHandler (stm32f10x_it)
                                                   main (main)
    -------------------------------------------------------------------------
DATA_Z
  Relative segment, address: 20002534 - 20002537 (0x4 bytes), align: 2
  Segment part 80.            Intra module refs:   Segment part 154
                                                   Update_Item
           ENTRY                   ADDRESS         REF BY
           =====                   =======         ======
           Frequency               20002534 
    -------------------------------------------------------------------------
DATA_Z
  Relative segment, address: 20002538 - 2000253B (0x4 bytes), align: 2
  Segment part 81.            Intra module refs:   Segment part 155
                                                   Update_Item
           ENTRY                   ADDRESS         REF BY
           =====                   =======         ======
           Cycle                   20002538 
    -------------------------------------------------------------------------
DATA_Z
  Relative segment, address: 2000253C - 2000253F (0x4 bytes), align: 2
  Segment part 82.            Intra module refs:   Segment part 156
                                                   Update_Item
           ENTRY                   ADDRESS         REF BY
           =====                   =======         ======
           Duty                    2000253C 
    -------------------------------------------------------------------------
DATA_I
  Relative segment, address: 20000180 - 20000197 (0x18 bytes), align: 2
  Segment part 83.            Intra module refs:   Segment part 137
                                                   Update_Item
           ENTRY                   ADDRESS         REF BY
           =====                   =======         ======
           Update                  20000180        Battery_Detect (HW_V1_Config)
                                                   TIM3_IRQHandler (stm32f10x_it)
                                                   main (main)
    -------------------------------------------------------------------------
DATA_C
  Relative segment, address: 0800BF20 - 0800BF2B (0xc bytes), align: 2
  Segment part 85.            Intra module refs:   Update_Item
           ENTRY                   ADDRESS         REF BY
           =====                   =======         ======
           V_Unit                  0800BF20 
    -------------------------------------------------------------------------
DATA_C
  Relative segment, address: 0800BF2C - 0800BF37 (0xc bytes), align: 2
  Segment part 86.            Intra module refs:   Update_Item
           ENTRY                   ADDRESS         REF BY
           =====                   =======         ======
           T_Unit                  0800BF2C 
    -------------------------------------------------------------------------
DATA_C
  Relative segment, address: 0800BF38 - 0800BF47 (0x10 bytes), align: 2
  Segment part 87.            Intra module refs:   Update_Item
           ENTRY                   ADDRESS         REF BY
           =====                   =======         ======
           F_Unit                  0800BF38 
    -------------------------------------------------------------------------
DATA_C
  Relative segment, address: 0800BF48 - 0800BF5B (0x14 bytes), align: 2
  Segment part 88.            Intra module refs:   Update_Item
           ENTRY                   ADDRESS         REF BY
           =====                   =======         ======
           Battery_Status          0800BF48 
    -------------------------------------------------------------------------
DATA_C
  Relative segment, address: 0800BF5C - 0800BF67 (0xc bytes), align: 2
  Segment part 89.            Intra module refs:   Update_Item
           ENTRY                   ADDRESS         REF BY
           =====                   =======         ======
           Battery_Color           0800BF5C 
    -------------------------------------------------------------------------
DATA_C
  Relative segment, address: 0800BF68 - 0800BF7B (0x14 bytes), align: 2
  Segment part 90.            Intra module refs:   Update_Item
           ENTRY                   ADDRESS         REF BY
           =====                   =======         ======
           MODE_Unit               0800BF68 
    -------------------------------------------------------------------------
DATA_C
  Relative segment, address: 0800BF7C - 0800BF93 (0x18 bytes), align: 2
  Segment part 91.            Intra module refs:   Update_Item
           ENTRY                   ADDRESS         REF BY
           =====                   =======         ======
           TEST_Unit               0800BF7C 
    -------------------------------------------------------------------------
DATA_I
  Relative segment, address: 20000198 - 2000019B (0x4 bytes), align: 2
  Segment part 92.            Intra module refs:   Update_Item
           ENTRY                   ADDRESS         REF BY
           =====                   =======         ======
           FileNum                 20000198        main (main)
    -------------------------------------------------------------------------
DATA_Z
  Relative segment, address: 20002A5E - 20002A5F (0x2 bytes), align: 1
  Segment part 94.            Intra module refs:   Segment part 115
                                                   Segment part 144
           ENTRY                   ADDRESS         REF BY
           =====                   =======         ======
           Delay_Counter           20002A5E        TIM3_IRQHandler (stm32f10x_it)
                                                   main (main)
    -------------------------------------------------------------------------
DATA_Z
  Relative segment, address: 20002A60 - 20002A61 (0x2 bytes), align: 1
  Segment part 95.            Intra module refs:   Segment part 132
                                                   Segment part 140
           ENTRY                   ADDRESS         REF BY
           =====                   =======         ======
           X_Counter               20002A60 
    -------------------------------------------------------------------------
DATA_Z
  Relative segment, address: 20002A62 - 20002A63 (0x2 bytes), align: 1
  Segment part 96.            Intra module refs:   Measure_Wave
           ENTRY                   ADDRESS         REF BY
           =====                   =======         ======
           First_Edge              20002A62 
    -------------------------------------------------------------------------
DATA_Z
  Relative segment, address: 20002A64 - 20002A65 (0x2 bytes), align: 1
  Segment part 97.            Intra module refs:   Measure_Wave
           ENTRY                   ADDRESS         REF BY
           =====                   =======         ======
           Last_Edge               20002A64 
    -------------------------------------------------------------------------
DATA_Z
  Relative segment, address: 20002A66 - 20002A67 (0x2 bytes), align: 1
  Segment part 98.            Intra module refs:   Update_Item
           ENTRY                   ADDRESS         REF BY
           =====                   =======         ======
           temp                    20002A66        main (main)
    -------------------------------------------------------------------------
DATA_Z
  Relative segment, address: 20002A7A - 20002A7A (0x1 bytes), align: 0
  Segment part 99.
           ENTRY                   ADDRESS         REF BY
           =====                   =======         ======
           Counter_20mS            20002A7A        TIM3_IRQHandler (stm32f10x_it)
    -------------------------------------------------------------------------
DATA_Z
  Relative segment, address: 20002A7B - 20002A7B (0x1 bytes), align: 0
  Segment part 100.
           ENTRY                   ADDRESS         REF BY
           =====                   =======         ======
           Key_Repeat_Counter      20002A7B        KeyScan (HW_V1_Config)
                                                   TIM3_IRQHandler (stm32f10x_it)
    -------------------------------------------------------------------------
DATA_Z
  Relative segment, address: 20002A7C - 20002A7C (0x1 bytes), align: 0
  Segment part 101.
           ENTRY                   ADDRESS         REF BY
           =====                   =======         ======
           Key_Wait_Counter        20002A7C        KeyScan (HW_V1_Config)
                                                   TIM3_IRQHandler (stm32f10x_it)
    -------------------------------------------------------------------------
DATA_Z
  Relative segment, address: 20002A7D - 20002A7D (0x1 bytes), align: 0
  Segment part 102.
           ENTRY                   ADDRESS         REF BY
           =====                   =======         ======
           Cursor_Counter          20002A7D        TIM3_IRQHandler (stm32f10x_it)
                                                   main (main)
    -------------------------------------------------------------------------
DATA_Z
  Relative segment, address: 20002A7E - 20002A7E (0x1 bytes), align: 0
  Segment part 103.           Intra module refs:   Segment part 151
                                                   Update_Item
           ENTRY                   ADDRESS         REF BY
           =====                   =======         ======
           Type                    20002A7E        TIM3_IRQHandler (stm32f10x_it)
    -------------------------------------------------------------------------
DATA_Z
  Relative segment, address: 20002A7F - 20002A7F (0x1 bytes), align: 0
  Segment part 104.
           ENTRY                   ADDRESS         REF BY
           =====                   =======         ======
           Key_Buffer              20002A7F        TIM3_IRQHandler (stm32f10x_it)
                                                   main (main)
    -------------------------------------------------------------------------
DATA_Z
  Relative segment, address: 20002A80 - 20002A80 (0x1 bytes), align: 0
  Segment part 106.           Intra module refs:   Segment part 126
                                                   Segment part 143
           ENTRY                   ADDRESS         REF BY
           =====                   =======         ======
           Sync                    20002A80        main (main)
    -------------------------------------------------------------------------
DATA_Z
  Relative segment, address: 20002A81 - 20002A81 (0x1 bytes), align: 0
  Segment part 108.           Intra module refs:   Segment part 139
           ENTRY                   ADDRESS         REF BY
           =====                   =======         ======
           Frame                   20002A81        main (main)
    -------------------------------------------------------------------------
DATA_Z
  Relative segment, address: 20002A82 - 20002A82 (0x1 bytes), align: 0
  Segment part 109.           Intra module refs:   Segment part 142
           ENTRY                   ADDRESS         REF BY
           =====                   =======         ======
           Stop                    20002A82        main (main)
    -------------------------------------------------------------------------
DATA_I
  Relative segment, address: 2000019C - 2000019F (0x4 bytes), align: 2
  Segment part 110.
           ENTRY                   ADDRESS         REF BY
           =====                   =======         ======
           vb_Sum                  2000019C        Battery_Detect (HW_V1_Config)
    -------------------------------------------------------------------------
DATA_Z
  Relative segment, address: 20002540 - 20002543 (0x4 bytes), align: 2
  Segment part 112.
           ENTRY                   ADDRESS         REF BY
           =====                   =======         ======
           Battery                 20002540        Battery_Detect (HW_V1_Config)
    -------------------------------------------------------------------------
DATA_Z
  Relative segment, address: 20002544 - 20002553 (0x10 bytes), align: 2
  Segment part 113.           Intra module refs:   Update_Item
           ENTRY                   ADDRESS         REF BY
           =====                   =======         ======
           Num                     20002544 
    -------------------------------------------------------------------------
CODE
  Relative segment, address: 080048F0 - 080048FD (0xe bytes), align: 2
  Segment part 114.
           ENTRY                   ADDRESS         REF BY
           =====                   =======         ======
           Delayms                 080048F1        LCD_Initial (Lcd)
    -------------------------------------------------------------------------
CODE
  Relative segment, address: 08004900 - 08004903 (0x4 bytes), align: 2
  Segment part 115.           Intra module refs:   Delayms
    -------------------------------------------------------------------------
CODE
  Relative segment, address: 08004904 - 080049F7 (0xf4 bytes), align: 2
  Segment part 116.           Intra module refs:   Scan_Wave
           ENTRY                   ADDRESS         REF BY
           =====                   =======         ======
           Sync_Trig               08004905 
    -------------------------------------------------------------------------
CODE
  Relative segment, address: 080049F8 - 080049FB (0x4 bytes), align: 2
  Segment part 117.           Intra module refs:   Sync_Trig
    -------------------------------------------------------------------------
CODE
  Relative segment, address: 080049FC - 080049FF (0x4 bytes), align: 2
  Segment part 118.           Intra module refs:   Sync_Trig
    -------------------------------------------------------------------------
CODE
  Relative segment, address: 08004A00 - 08004A03 (0x4 bytes), align: 2
  Segment part 119.           Intra module refs:   Sync_Trig
    -------------------------------------------------------------------------
CODE
  Relative segment, address: 08004A04 - 08004B53 (0x150 bytes), align: 2
  Segment part 120.           Intra module refs:   Scan_Wave
           ENTRY                   ADDRESS         REF BY
           =====                   =======         ======
           Signal_Process          08004A05 
               stack 1 = 00000000 ( 00000018 )
    -------------------------------------------------------------------------
CODE
  Relative segment, address: 08004B54 - 08004B57 (0x4 bytes), align: 2
  Segment part 121.           Intra module refs:   Signal_Process
                                                   Sync_Trig
    -------------------------------------------------------------------------
CODE
  Relative segment, address: 08004B58 - 08004B5B (0x4 bytes), align: 2
  Segment part 122.           Intra module refs:   Signal_Process
                                                   Sync_Trig
    -------------------------------------------------------------------------
CODE
  Relative segment, address: 08004B5C - 08004B5F (0x4 bytes), align: 2
  Segment part 123.           Intra module refs:   Signal_Process
                                                   Sync_Trig
    -------------------------------------------------------------------------
CODE
  Relative segment, address: 08004B60 - 08004B63 (0x4 bytes), align: 2
  Segment part 124.           Intra module refs:   Signal_Process
                                                   Sync_Trig
    -------------------------------------------------------------------------
CODE
  Relative segment, address: 08004B64 - 08004B67 (0x4 bytes), align: 2
  Segment part 125.           Intra module refs:   Signal_Process
    -------------------------------------------------------------------------
CODE
  Relative segment, address: 08004B68 - 08004B6B (0x4 bytes), align: 2
  Segment part 126.           Intra module refs:   Signal_Process
                                                   Sync_Trig
    -------------------------------------------------------------------------
CODE
  Relative segment, address: 08004B6C - 08004B6F (0x4 bytes), align: 2
  Segment part 127.           Intra module refs:   Signal_Process
                                                   Sync_Trig
    -------------------------------------------------------------------------
CODE
  Relative segment, address: 08004B70 - 08004B73 (0x4 bytes), align: 2
  Segment part 128.           Intra module refs:   Signal_Process
    -------------------------------------------------------------------------
CODE
  Relative segment, address: 08004B74 - 08004CC3 (0x150 bytes), align: 2
  Segment part 129.           Intra module refs:   Scan_Wave
           ENTRY                   ADDRESS         REF BY
           =====                   =======         ======
           Erase_Draw              08004B75 
               stack 1 = 00000000 ( 00000018 )
    -------------------------------------------------------------------------
CODE
  Relative segment, address: 08004CC4 - 08004CC7 (0x4 bytes), align: 2
  Segment part 130.           Intra module refs:   Erase_Draw
                                                   Signal_Process
    -------------------------------------------------------------------------
CODE
  Relative segment, address: 08004CC8 - 08004CCB (0x4 bytes), align: 2
  Segment part 131.           Intra module refs:   Erase_Draw
    -------------------------------------------------------------------------
CODE
  Relative segment, address: 08004CCC - 08004CCF (0x4 bytes), align: 2
  Segment part 132.           Intra module refs:   Erase_Draw
                                                   Signal_Process
                                                   Sync_Trig
    -------------------------------------------------------------------------
CODE
  Relative segment, address: 08004CD0 - 08004CD3 (0x4 bytes), align: 2
  Segment part 133.           Intra module refs:   Erase_Draw
    -------------------------------------------------------------------------
CODE
  Relative segment, address: 08004CD4 - 08004CD7 (0x4 bytes), align: 2
  Segment part 134.           Intra module refs:   Erase_Draw
                                                   Signal_Process
    -------------------------------------------------------------------------
CODE
  Relative segment, address: 08004CD8 - 08004E7D (0x1a6 bytes), align: 2
  Segment part 135.
           ENTRY                   ADDRESS         REF BY
           =====                   =======         ======
           Scan_Wave               08004CD9        main (main)
               stack 1 = 00000000 ( 00000004 )
    -------------------------------------------------------------------------
CODE
  Relative segment, address: 08004E80 - 08004E83 (0x4 bytes), align: 2
  Segment part 136.           Intra module refs:   Erase_Draw
                                                   Scan_Wave
    -------------------------------------------------------------------------
CODE
  Relative segment, address: 08004E84 - 08004E87 (0x4 bytes), align: 2
  Segment part 137.           Intra module refs:   Scan_Wave
    -------------------------------------------------------------------------
CODE
  Relative segment, address: 08004E88 - 08004E8B (0x4 bytes), align: 2
  Segment part 138.           Intra module refs:   Erase_Draw
                                                   Scan_Wave
    -------------------------------------------------------------------------
CODE
  Relative segment, address: 08004E8C - 08004E8F (0x4 bytes), align: 2
  Segment part 139.           Intra module refs:   Erase_Draw
                                                   Scan_Wave
    -------------------------------------------------------------------------
CODE
  Relative segment, address: 08004E90 - 08004E93 (0x4 bytes), align: 2
  Segment part 140.           Intra module refs:   Scan_Wave
    -------------------------------------------------------------------------
CODE
  Relative segment, address: 08004E94 - 08004E97 (0x4 bytes), align: 2
  Segment part 141.           Intra module refs:   Scan_Wave
    -------------------------------------------------------------------------
CODE
  Relative segment, address: 08004E98 - 08004E9B (0x4 bytes), align: 2
  Segment part 142.           Intra module refs:   Erase_Draw
                                                   Scan_Wave
    -------------------------------------------------------------------------
CODE
  Relative segment, address: 08004E9C - 08004E9F (0x4 bytes), align: 2
  Segment part 143.           Intra module refs:   Erase_Draw
                                                   Scan_Wave
    -------------------------------------------------------------------------
CODE
  Relative segment, address: 08004EA0 - 08004EA3 (0x4 bytes), align: 2
  Segment part 144.           Intra module refs:   Erase_Draw
                                                   Scan_Wave
    -------------------------------------------------------------------------
CODE
  Relative segment, address: 08004EA4 - 08005067 (0x1c4 bytes), align: 2
  Segment part 145.           Intra module refs:   Signal_Process
           ENTRY                   ADDRESS         REF BY
           =====                   =======         ======
           Measure_Wave            08004EA5 
               stack 1 = 00000000 ( 0000001C )
    -------------------------------------------------------------------------
CODE
  Relative segment, address: 08005068 - 0800506B (0x4 bytes), align: 2
  Segment part 146.           Intra module refs:   Measure_Wave
    -------------------------------------------------------------------------
CODE
  Relative segment, address: 0800506C - 0800506F (0x4 bytes), align: 2
  Segment part 147.           Intra module refs:   Measure_Wave
    -------------------------------------------------------------------------
CODE
  Relative segment, address: 08005070 - 08005073 (0x4 bytes), align: 2
  Segment part 148.           Intra module refs:   Measure_Wave
    -------------------------------------------------------------------------
CODE
  Relative segment, address: 08005074 - 08005077 (0x4 bytes), align: 2
  Segment part 149.           Intra module refs:   Measure_Wave
    -------------------------------------------------------------------------
CODE
  Relative segment, address: 08005078 - 0800507B (0x4 bytes), align: 2
  Segment part 150.           Intra module refs:   Measure_Wave
    -------------------------------------------------------------------------
CODE
  Relative segment, address: 0800507C - 0800507F (0x4 bytes), align: 2
  Segment part 151.           Intra module refs:   Measure_Wave
    -------------------------------------------------------------------------
CODE
  Relative segment, address: 08005080 - 08005083 (0x4 bytes), align: 2
  Segment part 152.           Intra module refs:   Measure_Wave
    -------------------------------------------------------------------------
CODE
  Relative segment, address: 08005084 - 08005087 (0x4 bytes), align: 2
  Segment part 153.           Intra module refs:   Measure_Wave
    -------------------------------------------------------------------------
CODE
  Relative segment, address: 08005088 - 0800508B (0x4 bytes), align: 2
  Segment part 154.           Intra module refs:   Measure_Wave
    -------------------------------------------------------------------------
CODE
  Relative segment, address: 0800508C - 0800508F (0x4 bytes), align: 2
  Segment part 155.           Intra module refs:   Measure_Wave
    -------------------------------------------------------------------------
CODE
  Relative segment, address: 08005090 - 08005093 (0x4 bytes), align: 2
  Segment part 156.           Intra module refs:   Measure_Wave
    -------------------------------------------------------------------------
CODE
  Relative segment, address: 08005094 - 08005E1F (0xd8c bytes), align: 2
  Segment part 157.
           ENTRY                   ADDRESS         REF BY
           =====                   =======         ======
           Update_Item             08005095        main (main)
               stack 1 = 00000000 ( 00000010 )
    -------------------------------------------------------------------------
DATA_ID
  Relative segment, address: 0800B7A0 - 0800B7C7 (0x28 bytes), align: 2
  Segment part 38.            Intra module refs:   Km
    -------------------------------------------------------------------------
DATA_ID
  Relative segment, address: 0800B7C8 - 0800B8F7 (0x130 bytes), align: 2
  Segment part 51.            Intra module refs:   Ref_Buffer
    -------------------------------------------------------------------------
DATA_ID
  Relative segment, address: 0800B8F8 - 0800B91F (0x28 bytes), align: 2
  Segment part 53.            Intra module refs:   Item_Index
    -------------------------------------------------------------------------
DATA_ID
  Relative segment, address: 0800BA54 - 0800BA55 (0x2 bytes), align: 1
  Segment part 55.            Intra module refs:   vt
    -------------------------------------------------------------------------
DATA_ID
  Relative segment, address: 0800BA56 - 0800BA57 (0x2 bytes), align: 1
  Segment part 57.            Intra module refs:   v0
    -------------------------------------------------------------------------
DATA_ID
  Relative segment, address: 0800BA58 - 0800BA59 (0x2 bytes), align: 1
  Segment part 59.            Intra module refs:   v1
    -------------------------------------------------------------------------
DATA_ID
  Relative segment, address: 0800BA5A - 0800BA5B (0x2 bytes), align: 1
  Segment part 61.            Intra module refs:   v2
    -------------------------------------------------------------------------
DATA_ID
  Relative segment, address: 0800BA5C - 0800BA5D (0x2 bytes), align: 1
  Segment part 63.            Intra module refs:   t0
    -------------------------------------------------------------------------
DATA_ID
  Relative segment, address: 0800BA5E - 0800BA5F (0x2 bytes), align: 1
  Segment part 65.            Intra module refs:   t1
    -------------------------------------------------------------------------
DATA_ID
  Relative segment, address: 0800BA60 - 0800BA61 (0x2 bytes), align: 1
  Segment part 67.            Intra module refs:   t2
    -------------------------------------------------------------------------
DATA_ID
  Relative segment, address: 0800BA62 - 0800BA62 (0x1 bytes), align: 0
  Segment part 69.            Intra module refs:   Hide_vs
    -------------------------------------------------------------------------
DATA_ID
  Relative segment, address: 0800BA63 - 0800BA63 (0x1 bytes), align: 0
  Segment part 72.            Intra module refs:   Hide_v0
    -------------------------------------------------------------------------
DATA_ID
  Relative segment, address: 0800BA64 - 0800BA64 (0x1 bytes), align: 0
  Segment part 79.            Intra module refs:   Item
    -------------------------------------------------------------------------
DATA_ID
  Relative segment, address: 0800B920 - 0800B937 (0x18 bytes), align: 2
  Segment part 84.            Intra module refs:   Update
    -------------------------------------------------------------------------
DATA_ID
  Relative segment, address: 0800B938 - 0800B93B (0x4 bytes), align: 2
  Segment part 93.            Intra module refs:   FileNum
    -------------------------------------------------------------------------
DATA_ID
  Relative segment, address: 0800B93C - 0800B93F (0x4 bytes), align: 2
  Segment part 111.           Intra module refs:   vb_Sum
    -------------------------------------------------------------------------
INITTAB
  Relative segment, address: 0800B794 - 0800B79F (0xc bytes), align: 2
  Segment part 189. ROOT.
           ENTRY                   ADDRESS         REF BY
           =====                   =======         ======
           ?init?tab?DATA_I        0800B794 

    *************************************************************************

  FILE NAME : E:\My File\other\DSO\DS0201_OpenSource\DS0201_APP\project\EWARM\Debug_FLASH\Obj\HW_V1_Config.r79
  PROGRAM MODULE, NAME : HW_V1_Config

  SEGMENTS IN THE MODULE
  ======================
DATA_Z
  Relative segment, address: 20002A83 - 20002A83 (0x1 bytes), align: 0
  Segment part 2.             Intra module refs:   KeyScan
           ENTRY                   ADDRESS         REF BY
           =====                   =======         ======
           Key_Status_Last         20002A83 
    -------------------------------------------------------------------------
DATA_Z
  Relative segment, address: 20002A84 - 20002A84 (0x1 bytes), align: 0
  Segment part 3.             Intra module refs:   Set_System
           ENTRY                   ADDRESS         REF BY
           =====                   =======         ======
           HSEStartUpStatus        20002A84 
    -------------------------------------------------------------------------
CODE
  Relative segment, address: 08005E20 - 08005EC7 (0xa8 bytes), align: 2
  Segment part 4.
           ENTRY                   ADDRESS         REF BY
           =====                   =======         ======
           Set_System              08005E21        main (main)
               stack 1 = 00000000 ( 00000004 )
    -------------------------------------------------------------------------
CODE
  Relative segment, address: 08005EC8 - 08005F79 (0xb2 bytes), align: 2
  Segment part 5.
           ENTRY                   ADDRESS         REF BY
           =====                   =======         ======
           NVIC_Configuration      08005EC9        main (main)
               stack 1 = 00000000 ( 00000008 )
    -------------------------------------------------------------------------
CODE
  Relative segment, address: 08005F7C - 08006043 (0xc8 bytes), align: 2
  Segment part 6.
           ENTRY                   ADDRESS         REF BY
           =====                   =======         ======
           GPIO_Config             08005F7D        main (main)
    -------------------------------------------------------------------------
CODE
  Relative segment, address: 08006044 - 08006095 (0x52 bytes), align: 2
  Segment part 7.
           ENTRY                   ADDRESS         REF BY
           =====                   =======         ======
           SPI_Config              08006045        MSD_Init (msd)
               stack 1 = 00000000 ( 00000018 )
    -------------------------------------------------------------------------
CODE
  Relative segment, address: 08006098 - 0800609B (0x4 bytes), align: 2
  Segment part 8.             Intra module refs:   SPI_Config
    -------------------------------------------------------------------------
CODE
  Relative segment, address: 0800609C - 080060E3 (0x48 bytes), align: 2
  Segment part 9.
           ENTRY                   ADDRESS         REF BY
           =====                   =======         ======
           DMA_Configuration       0800609D        main (main)
    -------------------------------------------------------------------------
CODE
  Relative segment, address: 080060E4 - 080060E7 (0x4 bytes), align: 2
  Segment part 10.            Intra module refs:   DMA_Configuration
    -------------------------------------------------------------------------
CODE
  Relative segment, address: 080060E8 - 080060EB (0x4 bytes), align: 2
  Segment part 11.            Intra module refs:   DMA_Configuration
    -------------------------------------------------------------------------
CODE
  Relative segment, address: 080060EC - 080060EF (0x4 bytes), align: 2
  Segment part 12.            Intra module refs:   DMA_Configuration
    -------------------------------------------------------------------------
CODE
  Relative segment, address: 080060F0 - 080060F3 (0x4 bytes), align: 2
  Segment part 13.            Intra module refs:   DMA_Configuration
    -------------------------------------------------------------------------
CODE
  Relative segment, address: 080060F4 - 080061CB (0xd8 bytes), align: 2
  Segment part 14.
           ENTRY                   ADDRESS         REF BY
           =====                   =======         ======
           ADC_Configuration       080060F5        main (main)
    -------------------------------------------------------------------------
CODE
  Relative segment, address: 080061CC - 0800632B (0x160 bytes), align: 2
  Segment part 15.
           ENTRY                   ADDRESS         REF BY
           =====                   =======         ======
           Timer_Configuration     080061CD        main (main)
               stack 1 = 00000000 ( 00000004 )
    -------------------------------------------------------------------------
CODE
  Relative segment, address: 0800632C - 0800643B (0x110 bytes), align: 2
  Segment part 16.
           ENTRY                   ADDRESS         REF BY
           =====                   =======         ======
           KeyScan                 0800632D        TIM3_IRQHandler (stm32f10x_it)
               stack 1 = 00000000 ( 00000004 )
    -------------------------------------------------------------------------
CODE
  Relative segment, address: 0800643C - 0800643F (0x4 bytes), align: 2
  Segment part 17.            Intra module refs:   KeyScan
    -------------------------------------------------------------------------
CODE
  Relative segment, address: 08006440 - 0800646D (0x2e bytes), align: 2
  Segment part 18.
           ENTRY                   ADDRESS         REF BY
           =====                   =======         ======
           MSD_WriteByte           08006441        MSD_GetCSDRegister (msd)
                                                   MSD_GoIdleState (msd)
                                                   MSD_Init (msd)
                                                   MSD_ReadBlock (msd)
                                                   MSD_SendCmd (msd)
                                                   MSD_WriteBlock (msd)
               stack 1 = 00000000 ( 00000008 )
    -------------------------------------------------------------------------
CODE
  Relative segment, address: 08006470 - 080064A5 (0x36 bytes), align: 2
  Segment part 19.
           ENTRY                   ADDRESS         REF BY
           =====                   =======         ======
           MSD_ReadByte            08006471        MSD_GetCSDRegister (msd)
                                                   MSD_GetDataResponse (msd)
                                                   MSD_GetResponse (msd)
                                                   MSD_ReadBlock (msd)
                                                   MSD_WriteBlock (msd)
               stack 1 = 00000000 ( 00000008 )
    -------------------------------------------------------------------------
CODE
  Relative segment, address: 080064A8 - 080064AB (0x4 bytes), align: 2
  Segment part 20.            Intra module refs:   MSD_ReadByte
                                                   MSD_WriteByte
    -------------------------------------------------------------------------
CODE
  Relative segment, address: 080064AC - 0800652F (0x84 bytes), align: 2
  Segment part 21.
           ENTRY                   ADDRESS         REF BY
           =====                   =======         ======
           Battery_Detect          080064AD        Erase_Draw (Function)
                                                   main (main)
    -------------------------------------------------------------------------
CODE
  Relative segment, address: 08006530 - 08006623 (0xf4 bytes), align: 2
  Segment part 22.
           ENTRY                   ADDRESS         REF BY
           =====                   =======         ======
           Set_Range               08006531        Update_Item (Function)
               stack 1 = 00000000 ( 00000004 )
    -------------------------------------------------------------------------
CODE
  Relative segment, address: 08006624 - 08006673 (0x50 bytes), align: 2
  Segment part 23.            Intra module refs:   Timer_Configuration
           ENTRY                   ADDRESS         REF BY
           =====                   =======         ======
           Set_Base                08006625        Update_Item (Function)
    -------------------------------------------------------------------------
CODE
  Relative segment, address: 08006674 - 08006695 (0x22 bytes), align: 2
  Segment part 24.
           ENTRY                   ADDRESS         REF BY
           =====                   =======         ======
           ADC_Start               08006675        Signal_Process (Function)
                                                   main (main)
    -------------------------------------------------------------------------
CODE
  Relative segment, address: 08006698 - 0800669B (0x4 bytes), align: 2
  Segment part 25.            Intra module refs:   ADC_Start
    -------------------------------------------------------------------------
CODE
  Relative segment, address: 0800669C - 0800669F (0x4 bytes), align: 2
  Segment part 26.            Intra module refs:   ADC_Start
    -------------------------------------------------------------------------
CODE
  Relative segment, address: 080066A0 - 080066A3 (0x4 bytes), align: 2
  Segment part 27.            Intra module refs:   ADC_Start
    -------------------------------------------------------------------------
CODE
  Relative segment, address: 080066A4 - 080066A7 (0x4 bytes), align: 2
  Segment part 28.            Intra module refs:   ADC_Start
    -------------------------------------------------------------------------
CODE
  Relative segment, address: 080066A8 - 0800693B (0x294 bytes), align: 2
  Segment part 29.            Intra module refs:   Timer_Configuration
           ENTRY                   ADDRESS         REF BY
           =====                   =======         ======
           Set_Y_Pos               080066A9        Update_Item (Function)
               stack 1 = 00000000 ( 00000004 )
    -------------------------------------------------------------------------
CODE
  Relative segment, address: 0800693C - 0800694F (0x14 bytes), align: 2
  Segment part 30.
           ENTRY                   ADDRESS         REF BY
           =====                   =======         ======
           Test_USB_ON             0800693D        Update_Item (Function)
    -------------------------------------------------------------------------
CODE
  Relative segment, address: 08006950 - 0800695F (0x10 bytes), align: 2
  Segment part 31.
           ENTRY                   ADDRESS         REF BY
           =====                   =======         ======
           SD_Card_ON              08006951        main (main)
    -------------------------------------------------------------------------
CODE
  Relative segment, address: 08006960 - 08006963 (0x4 bytes), align: 2
  Segment part 32.            Intra module refs:   SD_Card_ON

    *************************************************************************

  FILE NAME : E:\My File\other\DSO\DS0201_OpenSource\DS0201_APP\project\EWARM\Debug_FLASH\Obj\Lcd.r79
  PROGRAM MODULE, NAME : Lcd

  SEGMENTS IN THE MODULE
  ======================
DATA_C
  Relative segment, address: 0800BF94 - 0800C583 (0x5f0 bytes), align: 2
  Segment part 2.             Intra module refs:   Display_Str
           ENTRY                   ADDRESS         REF BY
           =====                   =======         ======
           Char_Dot                0800BF94 
    -------------------------------------------------------------------------
DATA_C
  Relative segment, address: 0800C584 - 0800CD83 (0x800 bytes), align: 2
  Segment part 3.             Intra module refs:   Display_Logo
           ENTRY                   ADDRESS         REF BY
           =====                   =======         ======
           Logo_Dot                0800C584 
    -------------------------------------------------------------------------
CODE
  Relative segment, address: 08006964 - 08006995 (0x32 bytes), align: 2
  Segment part 4.             Intra module refs:   LCD_Initial
                                                   Point_SCR
           ENTRY                   ADDRESS         REF BY
           =====                   =======         ======
           LCD_WR_REG              08006965 
    -------------------------------------------------------------------------
CODE
  Relative segment, address: 08006998 - 08006B63 (0x1cc bytes), align: 2
  Segment part 5.
           ENTRY                   ADDRESS         REF BY
           =====                   =======         ======
           LCD_Initial             08006999        main (main)
               stack 1 = 00000000 ( 00000004 )
    -------------------------------------------------------------------------
CODE
  Relative segment, address: 08006B64 - 08006B67 (0x4 bytes), align: 2
  Segment part 6.             Intra module refs:   LCD_Initial
    -------------------------------------------------------------------------
CODE
  Relative segment, address: 08006B68 - 08006BA5 (0x3e bytes), align: 2
  Segment part 7.             Intra module refs:   Clear_Screen
                                                   Display_Frame
                                                   Display_Grid
                                                   Display_Logo
                                                   Display_Str
                                                   Draw_Dot_ti
                                                   Draw_Dot_v0
                                                   Draw_Dot_vi
                                                   Draw_Dot_vt
                                                   Draw_SEG
                                                   Draw_View_Area
                                                   Draw_ti
                                                   Draw_v0
                                                   Draw_vi
                                                   Draw_vt
                                                   Erase_Dot_ti
                                                   Erase_Dot_v0
                                                   Erase_Dot_vi
                                                   Erase_Dot_vt
                                                   Erase_SEG
                                                   Erase_Ti
                                                   Erase_Vi
                                                   Erase_View_Area
                                                   Erase_Vn
           ENTRY                   ADDRESS         REF BY
           =====                   =======         ======
           Point_SCR               08006B69 
               stack 1 = 00000000 ( 0000000C )
    -------------------------------------------------------------------------
CODE
  Relative segment, address: 08006BA8 - 08006BBB (0x14 bytes), align: 2
  Segment part 8.             Intra module refs:   Clear_Screen
                                                   Display_Frame
                                                   Display_Grid
                                                   Display_Logo
                                                   Display_Str
                                                   Draw_Dot_ti
                                                   Draw_Dot_v0
                                                   Draw_Dot_vi
                                                   Draw_Dot_vt
                                                   Draw_SEG
                                                   Draw_View_Area
                                                   Draw_ti
                                                   Draw_v0
                                                   Draw_vi
                                                   Draw_vt
                                                   Erase_Dot_ti
                                                   Erase_Dot_v0
                                                   Erase_Dot_vi
                                                   Erase_Dot_vt
                                                   Erase_SEG
                                                   Erase_Ti
                                                   Erase_Vi
                                                   Erase_View_Area
                                                   Erase_Vn
           ENTRY                   ADDRESS         REF BY
           =====                   =======         ======
           Set_Pixel               08006BA9 
    -------------------------------------------------------------------------
CODE
  Relative segment, address: 08006BBC - 08006BBF (0x4 bytes), align: 2
  Segment part 9.             Intra module refs:   LCD_Initial
                                                   LCD_WR_REG
                                                   Point_SCR
                                                   Set_Pixel
    -------------------------------------------------------------------------
CODE
  Relative segment, address: 08006BC0 - 08006BC3 (0x4 bytes), align: 2
  Segment part 10.            Intra module refs:   LCD_Initial
                                                   LCD_WR_REG
                                                   Point_SCR
                                                   Set_Pixel
    -------------------------------------------------------------------------
CODE
  Relative segment, address: 08006BC4 - 08006BC7 (0x4 bytes), align: 2
  Segment part 11.            Intra module refs:   LCD_Initial
                                                   LCD_WR_REG
                                                   Point_SCR
                                                   Set_Pixel
    -------------------------------------------------------------------------
CODE
  Relative segment, address: 08006BC8 - 08006BE9 (0x22 bytes), align: 2
  Segment part 12.
           ENTRY                   ADDRESS         REF BY
           =====                   =======         ======
           Clear_Screen            08006BC9        main (main)
               stack 1 = 00000000 ( 0000000C )
    -------------------------------------------------------------------------
CODE
  Relative segment, address: 08006BEC - 08006C5F (0x74 bytes), align: 2
  Segment part 13.
           ENTRY                   ADDRESS         REF BY
           =====                   =======         ======
           Display_Frame           08006BED        main (main)
               stack 1 = 00000000 ( 0000000C )
    -------------------------------------------------------------------------
CODE
  Relative segment, address: 08006C60 - 08006D87 (0x128 bytes), align: 2
  Segment part 14.
           ENTRY                   ADDRESS         REF BY
           =====                   =======         ======
           Display_Grid            08006C61        main (main)
               stack 1 = 00000000 ( 0000000C )
    -------------------------------------------------------------------------
CODE
  Relative segment, address: 08006D88 - 08006D8B (0x4 bytes), align: 2
  Segment part 15.            Intra module refs:   Display_Grid
    -------------------------------------------------------------------------
CODE
  Relative segment, address: 08006D8C - 08006FF7 (0x26c bytes), align: 2
  Segment part 16.            Intra module refs:   Erase_Wave
           ENTRY                   ADDRESS         REF BY
           =====                   =======         ======
           Erase_SEG               08006D8D        Erase_Draw (Function)
               stack 1 = 00000000 ( 00000018 )
    -------------------------------------------------------------------------
CODE
  Relative segment, address: 08006FF8 - 08006FFB (0x4 bytes), align: 2
  Segment part 17.            Intra module refs:   Display_Grid
                                                   Erase_SEG
    -------------------------------------------------------------------------
CODE
  Relative segment, address: 08006FFC - 0800705D (0x62 bytes), align: 2
  Segment part 18.
           ENTRY                   ADDRESS         REF BY
           =====                   =======         ======
           Draw_SEG                08006FFD        Erase_Draw (Function)
               stack 1 = 00000000 ( 0000001C )
    -------------------------------------------------------------------------
CODE
  Relative segment, address: 08007060 - 080070D3 (0x74 bytes), align: 2
  Segment part 19.
           ENTRY                   ADDRESS         REF BY
           =====                   =======         ======
           Erase_Wave              08007061        Erase_Draw (Function)
                                                   Scan_Wave (Function)
                                                   main (main)
               stack 1 = 00000000 ( 00000014 )
    -------------------------------------------------------------------------
CODE
  Relative segment, address: 080070D4 - 080070D7 (0x4 bytes), align: 2
  Segment part 20.            Intra module refs:   Erase_Wave
    -------------------------------------------------------------------------
CODE
  Relative segment, address: 080070D8 - 080071CF (0xf8 bytes), align: 2
  Segment part 21.
           ENTRY                   ADDRESS         REF BY
           =====                   =======         ======
           Erase_Vn                080070D9        Update_Item (Function)
                                                   main (main)
               stack 1 = 00000000 ( 0000000C )
    -------------------------------------------------------------------------
CODE
  Relative segment, address: 080071D0 - 080071D3 (0x4 bytes), align: 2
  Segment part 22.            Intra module refs:   Erase_SEG
                                                   Erase_Vn
    -------------------------------------------------------------------------
CODE
  Relative segment, address: 080071D4 - 080071D7 (0x4 bytes), align: 2
  Segment part 23.            Intra module refs:   Erase_SEG
                                                   Erase_Vn
    -------------------------------------------------------------------------
CODE
  Relative segment, address: 080071D8 - 080071DB (0x4 bytes), align: 2
  Segment part 24.            Intra module refs:   Erase_SEG
                                                   Erase_Vn
    -------------------------------------------------------------------------
CODE
  Relative segment, address: 080071DC - 080071DF (0x4 bytes), align: 2
  Segment part 25.            Intra module refs:   Erase_SEG
                                                   Erase_Vn
    -------------------------------------------------------------------------
CODE
  Relative segment, address: 080071E0 - 080071E3 (0x4 bytes), align: 2
  Segment part 26.            Intra module refs:   Erase_SEG
                                                   Erase_Vn
    -------------------------------------------------------------------------
CODE
  Relative segment, address: 080071E4 - 080072D3 (0xf0 bytes), align: 2
  Segment part 27.
           ENTRY                   ADDRESS         REF BY
           =====                   =======         ======
           Erase_Vi                080071E5        Update_Item (Function)
                                                   main (main)
               stack 1 = 00000000 ( 0000000C )
    -------------------------------------------------------------------------
CODE
  Relative segment, address: 080072D4 - 080072D7 (0x4 bytes), align: 2
  Segment part 28.            Intra module refs:   Erase_SEG
                                                   Erase_Vi
    -------------------------------------------------------------------------
CODE
  Relative segment, address: 080072D8 - 080072DB (0x4 bytes), align: 2
  Segment part 29.            Intra module refs:   Erase_SEG
                                                   Erase_Vi
    -------------------------------------------------------------------------
CODE
  Relative segment, address: 080072DC - 080073B3 (0xd8 bytes), align: 2
  Segment part 30.
           ENTRY                   ADDRESS         REF BY
           =====                   =======         ======
           Erase_Ti                080072DD        Update_Item (Function)
                                                   main (main)
               stack 1 = 00000000 ( 0000000C )
    -------------------------------------------------------------------------
CODE
  Relative segment, address: 080073B4 - 080073B7 (0x4 bytes), align: 2
  Segment part 31.            Intra module refs:   Erase_Ti
                                                   Erase_Vi
    -------------------------------------------------------------------------
CODE
  Relative segment, address: 080073B8 - 080073BB (0x4 bytes), align: 2
  Segment part 32.            Intra module refs:   Erase_Ti
                                                   Erase_Vi
    -------------------------------------------------------------------------
CODE
  Relative segment, address: 080073BC - 080073BF (0x4 bytes), align: 2
  Segment part 33.            Intra module refs:   Erase_Ti
                                                   Erase_Vi
                                                   Erase_Vn
    -------------------------------------------------------------------------
CODE
  Relative segment, address: 080073C0 - 080073C3 (0x4 bytes), align: 2
  Segment part 34.            Intra module refs:   Erase_Ti
    -------------------------------------------------------------------------
CODE
  Relative segment, address: 080073C4 - 080073C7 (0x4 bytes), align: 2
  Segment part 35.            Intra module refs:   Erase_Ti
    -------------------------------------------------------------------------
CODE
  Relative segment, address: 080073C8 - 080073CB (0x4 bytes), align: 2
  Segment part 36.            Intra module refs:   Erase_Ti
                                                   Erase_Vi
    -------------------------------------------------------------------------
CODE
  Relative segment, address: 080073CC - 080073FB (0x30 bytes), align: 2
  Segment part 37.
           ENTRY                   ADDRESS         REF BY
           =====                   =======         ======
           Draw_v0                 080073CD        Update_Item (Function)
               stack 1 = 00000000 ( 00000008 )
    -------------------------------------------------------------------------
CODE
  Relative segment, address: 080073FC - 080073FF (0x4 bytes), align: 2
  Segment part 38.            Intra module refs:   Draw_v0
                                                   Erase_Vi
                                                   Erase_Vn
    -------------------------------------------------------------------------
CODE
  Relative segment, address: 08007400 - 08007429 (0x2a bytes), align: 2
  Segment part 39.
           ENTRY                   ADDRESS         REF BY
           =====                   =======         ======
           Draw_vt                 08007401        Update_Item (Function)
               stack 1 = 00000000 ( 00000008 )
    -------------------------------------------------------------------------
CODE
  Relative segment, address: 0800742C - 0800742F (0x4 bytes), align: 2
  Segment part 40.            Intra module refs:   Draw_vt
    -------------------------------------------------------------------------
CODE
  Relative segment, address: 08007430 - 08007459 (0x2a bytes), align: 2
  Segment part 41.
           ENTRY                   ADDRESS         REF BY
           =====                   =======         ======
           Draw_vi                 08007431        Update_Item (Function)
               stack 1 = 00000000 ( 0000000C )
    -------------------------------------------------------------------------
CODE
  Relative segment, address: 0800745C - 08007483 (0x28 bytes), align: 2
  Segment part 42.
           ENTRY                   ADDRESS         REF BY
           =====                   =======         ======
           Draw_ti                 0800745D        Update_Item (Function)
               stack 1 = 00000000 ( 0000000C )
    -------------------------------------------------------------------------
CODE
  Relative segment, address: 08007484 - 08007487 (0x4 bytes), align: 2
  Segment part 43.            Intra module refs:   Draw_ti
                                                   Draw_vi
    -------------------------------------------------------------------------
CODE
  Relative segment, address: 08007488 - 080075B1 (0x12a bytes), align: 2
  Segment part 44.
           ENTRY                   ADDRESS         REF BY
           =====                   =======         ======
           Erase_Dot_v0            08007489        main (main)
               stack 1 = 00000000 ( 00000004 )
    -------------------------------------------------------------------------
CODE
  Relative segment, address: 080075B4 - 080075B7 (0x4 bytes), align: 2
  Segment part 45.            Intra module refs:   Draw_v0
                                                   Erase_Dot_v0
    -------------------------------------------------------------------------
CODE
  Relative segment, address: 080075B8 - 080076E1 (0x12a bytes), align: 2
  Segment part 46.
           ENTRY                   ADDRESS         REF BY
           =====                   =======         ======
           Erase_Dot_vt            080075B9        main (main)
               stack 1 = 00000000 ( 00000004 )
    -------------------------------------------------------------------------
CODE
  Relative segment, address: 080076E4 - 080076E7 (0x4 bytes), align: 2
  Segment part 47.            Intra module refs:   Draw_vi
                                                   Draw_vt
                                                   Erase_Dot_v0
                                                   Erase_Dot_vt
    -------------------------------------------------------------------------
CODE
  Relative segment, address: 080076E8 - 080076EB (0x4 bytes), align: 2
  Segment part 48.            Intra module refs:   Draw_vt
                                                   Erase_Dot_vt
    -------------------------------------------------------------------------
CODE
  Relative segment, address: 080076EC - 08007803 (0x118 bytes), align: 2
  Segment part 49.
           ENTRY                   ADDRESS         REF BY
           =====                   =======         ======
           Erase_Dot_vi            080076ED        main (main)
               stack 1 = 00000000 ( 00000008 )
    -------------------------------------------------------------------------
CODE
  Relative segment, address: 08007804 - 08007807 (0x4 bytes), align: 2
  Segment part 50.            Intra module refs:   Erase_Dot_vi
    -------------------------------------------------------------------------
CODE
  Relative segment, address: 08007808 - 0800780B (0x4 bytes), align: 2
  Segment part 51.            Intra module refs:   Erase_Dot_v0
                                                   Erase_Dot_vi
                                                   Erase_Dot_vt
    -------------------------------------------------------------------------
CODE
  Relative segment, address: 0800780C - 08007915 (0x10a bytes), align: 2
  Segment part 52.
           ENTRY                   ADDRESS         REF BY
           =====                   =======         ======
           Erase_Dot_ti            0800780D        main (main)
               stack 1 = 00000000 ( 00000008 )
    -------------------------------------------------------------------------
CODE
  Relative segment, address: 08007918 - 0800791B (0x4 bytes), align: 2
  Segment part 53.            Intra module refs:   Erase_Dot_ti
    -------------------------------------------------------------------------
CODE
  Relative segment, address: 0800791C - 080079C7 (0xac bytes), align: 2
  Segment part 54.
           ENTRY                   ADDRESS         REF BY
           =====                   =======         ======
           Draw_Dot_v0             0800791D        Update_Item (Function)
               stack 1 = 00000000 ( 0000000C )
    -------------------------------------------------------------------------
CODE
  Relative segment, address: 080079C8 - 080079CB (0x4 bytes), align: 2
  Segment part 55.            Intra module refs:   Draw_Dot_v0
    -------------------------------------------------------------------------
CODE
  Relative segment, address: 080079CC - 080079CF (0x4 bytes), align: 2
  Segment part 56.            Intra module refs:   Draw_Dot_v0
    -------------------------------------------------------------------------
CODE
  Relative segment, address: 080079D0 - 08007A7B (0xac bytes), align: 2
  Segment part 57.
           ENTRY                   ADDRESS         REF BY
           =====                   =======         ======
           Draw_Dot_vt             080079D1        Update_Item (Function)
               stack 1 = 00000000 ( 0000000C )
    -------------------------------------------------------------------------
CODE
  Relative segment, address: 08007A7C - 08007A7F (0x4 bytes), align: 2
  Segment part 58.            Intra module refs:   Draw_Dot_vt
    -------------------------------------------------------------------------
CODE
  Relative segment, address: 08007A80 - 08007B1F (0xa0 bytes), align: 2
  Segment part 59.
           ENTRY                   ADDRESS         REF BY
           =====                   =======         ======
           Draw_Dot_vi             08007A81        Update_Item (Function)
               stack 1 = 00000000 ( 00000010 )
    -------------------------------------------------------------------------
CODE
  Relative segment, address: 08007B20 - 08007B23 (0x4 bytes), align: 2
  Segment part 60.            Intra module refs:   Draw_Dot_v0
                                                   Draw_Dot_vi
                                                   Draw_Dot_vt
    -------------------------------------------------------------------------
CODE
  Relative segment, address: 08007B24 - 08007B27 (0x4 bytes), align: 2
  Segment part 61.            Intra module refs:   Draw_Dot_v0
                                                   Draw_Dot_vi
                                                   Draw_Dot_vt
    -------------------------------------------------------------------------
CODE
  Relative segment, address: 08007B28 - 08007B2B (0x4 bytes), align: 2
  Segment part 62.            Intra module refs:   Draw_Dot_v0
                                                   Draw_Dot_vi
                                                   Draw_Dot_vt
    -------------------------------------------------------------------------
CODE
  Relative segment, address: 08007B2C - 08007B2F (0x4 bytes), align: 2
  Segment part 63.            Intra module refs:   Draw_Dot_v0
                                                   Draw_Dot_vi
                                                   Draw_Dot_vt
    -------------------------------------------------------------------------
CODE
  Relative segment, address: 08007B30 - 08007BC7 (0x98 bytes), align: 2
  Segment part 64.
           ENTRY                   ADDRESS         REF BY
           =====                   =======         ======
           Draw_Dot_ti             08007B31        Update_Item (Function)
               stack 1 = 00000000 ( 00000010 )
    -------------------------------------------------------------------------
CODE
  Relative segment, address: 08007BC8 - 08007C5B (0x94 bytes), align: 2
  Segment part 65.
           ENTRY                   ADDRESS         REF BY
           =====                   =======         ======
           Erase_View_Area         08007BC9        main (main)
               stack 1 = 00000000 ( 00000008 )
    -------------------------------------------------------------------------
CODE
  Relative segment, address: 08007C5C - 08007C5F (0x4 bytes), align: 2
  Segment part 66.            Intra module refs:   Erase_View_Area
    -------------------------------------------------------------------------
CODE
  Relative segment, address: 08007C60 - 08007CF7 (0x98 bytes), align: 2
  Segment part 67.
           ENTRY                   ADDRESS         REF BY
           =====                   =======         ======
           Draw_View_Area          08007C61        main (main)
               stack 1 = 00000000 ( 0000000C )
    -------------------------------------------------------------------------
CODE
  Relative segment, address: 08007CF8 - 08007CFB (0x4 bytes), align: 2
  Segment part 68.            Intra module refs:   Draw_Dot_ti
                                                   Draw_Dot_vi
                                                   Draw_View_Area
    -------------------------------------------------------------------------
CODE
  Relative segment, address: 08007CFC - 08007CFF (0x4 bytes), align: 2
  Segment part 69.            Intra module refs:   Draw_Dot_vt
                                                   Draw_View_Area
    -------------------------------------------------------------------------
CODE
  Relative segment, address: 08007D00 - 08007E43 (0x144 bytes), align: 2
  Segment part 70.
           ENTRY                   ADDRESS         REF BY
           =====                   =======         ======
           Display_Str             08007D01        Update_Item (Function)
                                                   main (main)
               stack 1 = 00000000 ( 00000024 )
    -------------------------------------------------------------------------
CODE
  Relative segment, address: 08007E44 - 08007F83 (0x140 bytes), align: 2
  Segment part 71.
           ENTRY                   ADDRESS         REF BY
           =====                   =======         ======
           Display_Logo            08007E45        main (main)
               stack 1 = 00000000 ( 00000020 )
    -------------------------------------------------------------------------
CODE
  Relative segment, address: 08007F84 - 08007F87 (0x4 bytes), align: 2
  Segment part 72.            Intra module refs:   Display_Logo
    -------------------------------------------------------------------------
CODE
  Relative segment, address: 08007F88 - 08007F8B (0x4 bytes), align: 2
  Segment part 73.            Intra module refs:   Display_Logo

    *************************************************************************

  FILE NAME : E:\My File\other\DSO\DS0201_OpenSource\DS0201_APP\project\EWARM\Debug_FLASH\Obj\cortexm3_macro.r79
  PROGRAM MODULE, NAME : cortexm3_macro

  SEGMENTS IN THE MODULE
  ======================
CODE
  Relative segment, address: 08007F8C - 08007FF9 (0x6e bytes), align: 2
  Segment part 0. ROOT.
           ENTRY                   ADDRESS         REF BY
           =====                   =======         ======
           __WFI                   08007F8D 
           __WFE                   08007F91 
           __SEV                   08007F95 
           __ISB                   08007F99 
           __DSB                   08007F9F 
           __DMB                   08007FA5 
           __SVC                   08007FAB 
           __MRS_CONTROL           08007FAF 
           __MSR_CONTROL           08007FB5 
           __MRS_PSP               08007FBF 
           __MSR_PSP               08007FC5 
           __MRS_MSP               08007FCB 
           __MSR_MSP               08007FD1 
           __SETPRIMASK            08007FD7 
           __RESETPRIMASK          08007FDB 
           __SETFAULTMASK          08007FDF 
           __RESETFAULTMASK        08007FE3 
           __BASEPRICONFIG         08007FE7 
           __GetBASEPRI            08007FED 
           __REV_HalfWord          08007FF3 
           __REV_Word              08007FF7 

    *************************************************************************

  FILE NAME : E:\My File\other\DSO\DS0201_OpenSource\DS0201_APP\project\EWARM\Debug_FLASH\Obj\main.r79
  PROGRAM MODULE, NAME : main

  SEGMENTS IN THE MODULE
  ======================
CODE
  Relative segment, address: 08007FFC - 08008E23 (0xe28 bytes), align: 2
  Segment part 10.
           ENTRY                   ADDRESS         REF BY
           =====                   =======         ======
           main                    08007FFD        _main (?CMAIN)
               stack 1 = 00000000 ( 0000000C )
    -------------------------------------------------------------------------
DATA_C
  Relative segment, address: 0800CD84 - 0800CDA3 (0x20 bytes), align: 2
  Segment part 2.             Intra module refs:   main
    -------------------------------------------------------------------------
DATA_C
  Relative segment, address: 0800CDA4 - 0800CDBB (0x18 bytes), align: 2
  Segment part 3.             Intra module refs:   main
    -------------------------------------------------------------------------
DATA_C
  Relative segment, address: 0800CDBC - 0800CDE3 (0x28 bytes), align: 2
  Segment part 4.             Intra module refs:   main
    -------------------------------------------------------------------------
DATA_C
  Relative segment, address: 0800CDE4 - 0800CDF3 (0x10 bytes), align: 2
  Segment part 5.             Intra module refs:   main
    -------------------------------------------------------------------------
DATA_C
  Relative segment, address: 0800CDF4 - 0800CE03 (0x10 bytes), align: 2
  Segment part 6.             Intra module refs:   main
    -------------------------------------------------------------------------
DATA_C
  Relative segment, address: 0800CE04 - 0800CE13 (0x10 bytes), align: 2
  Segment part 7.             Intra module refs:   main
    -------------------------------------------------------------------------
DATA_C
  Relative segment, address: 0800CE14 - 0800CE23 (0x10 bytes), align: 2
  Segment part 8.             Intra module refs:   main
    -------------------------------------------------------------------------
DATA_C
  Relative segment, address: 0800CE24 - 0800CE33 (0x10 bytes), align: 2
  Segment part 9.             Intra module refs:   main

    *************************************************************************

  FILE NAME : E:\My File\other\DSO\DS0201_OpenSource\DS0201_APP\project\EWARM\Debug_FLASH\Obj\memory.r79
  PROGRAM MODULE, NAME : memory

  SEGMENTS IN THE MODULE
  ======================
DATA_Z
  Relative segment, address: 20002554 - 20002557 (0x4 bytes), align: 2
  Segment part 2.             Intra module refs:   Segment part 19
           ENTRY                   ADDRESS         REF BY
           =====                   =======         ======
           Memory_Offset           20002554 
    -------------------------------------------------------------------------
DATA_Z
  Relative segment, address: 20002558 - 2000255B (0x4 bytes), align: 2
  Segment part 3.             Intra module refs:   Segment part 20
           ENTRY                   ADDRESS         REF BY
           =====                   =======         ======
           Transfer_Length         20002558 
    -------------------------------------------------------------------------
DATA_Z
  Relative segment, address: 2000255C - 2000255F (0x4 bytes), align: 2
  Segment part 4.             Intra module refs:   Read_Memory
           ENTRY                   ADDRESS         REF BY
           =====                   =======         ======
           Block_Read_count        2000255C 
    -------------------------------------------------------------------------
DATA_Z
  Relative segment, address: 20002560 - 20002563 (0x4 bytes), align: 2
  Segment part 5.             Intra module refs:   Read_Memory
           ENTRY                   ADDRESS         REF BY
           =====                   =======         ======
           Block_offset            20002560 
    -------------------------------------------------------------------------
DATA_Z
  Relative segment, address: 20002564 - 20002567 (0x4 bytes), align: 2
  Segment part 6.             Intra module refs:   Write_Memory
           ENTRY                   ADDRESS         REF BY
           =====                   =======         ======
           Counter                 20002564 
    -------------------------------------------------------------------------
DATA_Z
  Relative segment, address: 20002568 - 2000256B (0x4 bytes), align: 2
  Segment part 7.             Intra module refs:   Write_Memory
           ENTRY                   ADDRESS         REF BY
           =====                   =======         ======
           i                       20002568 
    -------------------------------------------------------------------------
DATA_Z
  Relative segment, address: 2000256C - 2000276B (0x200 bytes), align: 2
  Segment part 8.             Intra module refs:   Segment part 13
           ENTRY                   ADDRESS         REF BY
           =====                   =======         ======
           Data_Buffer             2000256C 
    -------------------------------------------------------------------------
DATA_Z
  Relative segment, address: 2000276C - 20002793 (0x28 bytes), align: 2
  Segment part 9.             Intra module refs:   Get_Medium_Characteristics
           ENTRY                   ADDRESS         REF BY
           =====                   =======         ======
           MSD_csd                 2000276C 
    -------------------------------------------------------------------------
CODE
  Relative segment, address: 08008E24 - 08008E7F (0x5c bytes), align: 2
  Segment part 10.
           ENTRY                   ADDRESS         REF BY
           =====                   =======         ======
           Get_Medium_Characteristics
                                   08008E25        main (main)
               stack 1 = 00000000 ( 0000000C )
    -------------------------------------------------------------------------
CODE
  Relative segment, address: 08008E80 - 08008F2F (0xb0 bytes), align: 2
  Segment part 11.
           ENTRY                   ADDRESS         REF BY
           =====                   =======         ======
           Read_Memory             08008E81        SCSI_Read10_Cmd (usb_scsi)
               stack 1 = 00000000 ( 00000004 )
    -------------------------------------------------------------------------
CODE
  Relative segment, address: 08008F30 - 08008FFF (0xd0 bytes), align: 2
  Segment part 12.
           ENTRY                   ADDRESS         REF BY
           =====                   =======         ======
           Write_Memory            08008F31        SCSI_Write10_Cmd (usb_scsi)
               stack 1 = 00000000 ( 00000008 )
    -------------------------------------------------------------------------
CODE
  Relative segment, address: 08009000 - 08009003 (0x4 bytes), align: 2
  Segment part 13.            Intra module refs:   Read_Memory
                                                   Write_Memory
    -------------------------------------------------------------------------
CODE
  Relative segment, address: 08009004 - 08009007 (0x4 bytes), align: 2
  Segment part 14.            Intra module refs:   Read_Memory
                                                   Write_Memory
    -------------------------------------------------------------------------
CODE
  Relative segment, address: 08009008 - 0800900B (0x4 bytes), align: 2
  Segment part 15.            Intra module refs:   Read_Memory
                                                   Write_Memory
    -------------------------------------------------------------------------
CODE
  Relative segment, address: 0800900C - 080090DF (0xd4 bytes), align: 2
  Segment part 16.
           ENTRY                   ADDRESS         REF BY
           =====                   =======         ======
           Address_Management_Test
                                   0800900D        SCSI_Read10_Cmd (usb_scsi)
                                                   SCSI_Write10_Cmd (usb_scsi)
               stack 1 = 00000000 ( 00000010 )
    -------------------------------------------------------------------------
CODE
  Relative segment, address: 080090E0 - 080090E3 (0x4 bytes), align: 2
  Segment part 17.            Intra module refs:   Address_Management_Test
                                                   Get_Medium_Characteristics
    -------------------------------------------------------------------------
CODE
  Relative segment, address: 080090E4 - 080090E7 (0x4 bytes), align: 2
  Segment part 18.            Intra module refs:   Address_Management_Test
                                                   Get_Medium_Characteristics
    -------------------------------------------------------------------------
CODE
  Relative segment, address: 080090E8 - 080090EB (0x4 bytes), align: 2
  Segment part 19.            Intra module refs:   Address_Management_Test
                                                   Read_Memory
                                                   Write_Memory
    -------------------------------------------------------------------------
CODE
  Relative segment, address: 080090EC - 080090EF (0x4 bytes), align: 2
  Segment part 20.            Intra module refs:   Address_Management_Test
                                                   Read_Memory
                                                   Write_Memory

    *************************************************************************

  FILE NAME : E:\My File\other\DSO\DS0201_OpenSource\DS0201_APP\project\EWARM\Debug_FLASH\Obj\msd.r79
  PROGRAM MODULE, NAME : msd

  SEGMENTS IN THE MODULE
  ======================
DATA_Z
  Relative segment, address: 20002794 - 20002993 (0x200 bytes), align: 2
  Segment part 2.
           ENTRY                   ADDRESS         REF BY
           =====                   =======         ======
           SectorBuff              20002794        FAT_Info (Files)
                                                   Segment part 18 (Files)
                                                   Segment part 24 (Files)
                                                   main (main)
    -------------------------------------------------------------------------
CODE
  Relative segment, address: 080090F0 - 080090FD (0xe bytes), align: 2
  Segment part 3.             Intra module refs:   MSD_GetCSDRegister
                                                   MSD_GoIdleState
                                                   MSD_ReadBlock
                                                   MSD_WriteBlock
           ENTRY                   ADDRESS         REF BY
           =====                   =======         ======
           Delay_us                080090F1 
    -------------------------------------------------------------------------
CODE
  Relative segment, address: 08009100 - 08009129 (0x2a bytes), align: 2
  Segment part 4.
           ENTRY                   ADDRESS         REF BY
           =====                   =======         ======
           MSD_Init                08009101        main (main)
               stack 1 = 00000000 ( 00000008 )
    -------------------------------------------------------------------------
CODE
  Relative segment, address: 0800912C - 080091A9 (0x7e bytes), align: 2
  Segment part 5.
           ENTRY                   ADDRESS         REF BY
           =====                   =======         ======
           MSD_WriteBlock          0800912D        Write_File (Files)
                                                   Write_Memory (memory)
               stack 1 = 00000000 ( 00000018 )
    -------------------------------------------------------------------------
CODE
  Relative segment, address: 080091AC - 0800921F (0x74 bytes), align: 2
  Segment part 6.
           ENTRY                   ADDRESS         REF BY
           =====                   =======         ======
           MSD_ReadBlock           080091AD        FAT_Info (Files)
                                                   Open_File (Files)
                                                   Read_File (Files)
                                                   Read_Memory (memory)
               stack 1 = 00000000 ( 00000018 )
    -------------------------------------------------------------------------
CODE
  Relative segment, address: 08009220 - 08009223 (0x4 bytes), align: 2
  Segment part 9.             Intra module refs:   MSD_ReadBlock
                                                   MSD_WriteBlock
    -------------------------------------------------------------------------
CODE
  Relative segment, address: 08009224 - 08009227 (0x4 bytes), align: 2
  Segment part 10.            Intra module refs:   MSD_Init
                                                   MSD_ReadBlock
                                                   MSD_WriteBlock
    -------------------------------------------------------------------------
CODE
  Relative segment, address: 08009228 - 0800948D (0x266 bytes), align: 2
  Segment part 11.
           ENTRY                   ADDRESS         REF BY
           =====                   =======         ======
           MSD_GetCSDRegister      08009229        Get_Medium_Characteristics (memory)
               stack 1 = 00000000 ( 00000020 )
    -------------------------------------------------------------------------
CODE
  Relative segment, address: 08009490 - 08009493 (0x4 bytes), align: 2
  Segment part 13.            Intra module refs:   MSD_GetCSDRegister
    -------------------------------------------------------------------------
CODE
  Relative segment, address: 08009494 - 08009497 (0x4 bytes), align: 2
  Segment part 14.            Intra module refs:   MSD_GetCSDRegister
    -------------------------------------------------------------------------
CODE
  Relative segment, address: 08009498 - 080094E7 (0x50 bytes), align: 2
  Segment part 15.            Intra module refs:   MSD_GetCSDRegister
                                                   MSD_GoIdleState
                                                   MSD_ReadBlock
                                                   MSD_WriteBlock
           ENTRY                   ADDRESS         REF BY
           =====                   =======         ======
           MSD_SendCmd             08009499 
               stack 1 = 00000000 ( 0000001C )
    -------------------------------------------------------------------------
CODE
  Relative segment, address: 080094E8 - 08009535 (0x4e bytes), align: 2
  Segment part 16.            Intra module refs:   MSD_WriteBlock
           ENTRY                   ADDRESS         REF BY
           =====                   =======         ======
           MSD_GetDataResponse     080094E9 
               stack 1 = 00000000 ( 00000010 )
    -------------------------------------------------------------------------
CODE
  Relative segment, address: 08009538 - 0800955F (0x28 bytes), align: 2
  Segment part 17.            Intra module refs:   MSD_GetCSDRegister
                                                   MSD_GoIdleState
                                                   MSD_ReadBlock
                                                   MSD_WriteBlock
           ENTRY                   ADDRESS         REF BY
           =====                   =======         ======
           MSD_GetResponse         08009539 
               stack 1 = 00000000 ( 0000000C )
    -------------------------------------------------------------------------
CODE
  Relative segment, address: 08009560 - 080095C1 (0x62 bytes), align: 2
  Segment part 19.            Intra module refs:   MSD_Init
           ENTRY                   ADDRESS         REF BY
           =====                   =======         ======
           MSD_GoIdleState         08009561 
               stack 1 = 00000000 ( 00000004 )
    -------------------------------------------------------------------------
CODE
  Relative segment, address: 080095C4 - 080095C7 (0x4 bytes), align: 2
  Segment part 20.            Intra module refs:   MSD_GoIdleState
    -------------------------------------------------------------------------
CODE
  Relative segment, address: 080095C8 - 080095CB (0x4 bytes), align: 2
  Segment part 21.            Intra module refs:   MSD_GoIdleState

    *************************************************************************

  FILE NAME : E:\My File\other\DSO\DS0201_OpenSource\DS0201_APP\project\EWARM\Debug_FLASH\Obj\scsi_data.r79
  PROGRAM MODULE, NAME : scsi_data

  SEGMENTS IN THE MODULE
  ======================
DATA_Z
  Relative segment, address: 20002994 - 2000299B (0x8 bytes), align: 2
  Segment part 2.
           ENTRY                   ADDRESS         REF BY
           =====                   =======         ======
           Page00_Inquiry_Data     20002994        SCSI_Inquiry_Cmd (usb_scsi)
    -------------------------------------------------------------------------
DATA_I
  Relative segment, address: 200001A0 - 200001C3 (0x24 bytes), align: 2
  Segment part 3.
           ENTRY                   ADDRESS         REF BY
           =====                   =======         ======
           Standard_Inquiry_Data   200001A0        SCSI_Inquiry_Cmd (usb_scsi)
    -------------------------------------------------------------------------
DATA_I
  Relative segment, address: 200001C4 - 200001C7 (0x4 bytes), align: 2
  Segment part 5.
           ENTRY                   ADDRESS         REF BY
           =====                   =======         ======
           Mode_Sense6_data        200001C4        SCSI_ModeSense6_Cmd (usb_scsi)
    -------------------------------------------------------------------------
DATA_I
  Relative segment, address: 200001C8 - 200001CF (0x8 bytes), align: 2
  Segment part 7.
           ENTRY                   ADDRESS         REF BY
           =====                   =======         ======
           Mode_Sense10_data       200001C8        SCSI_ModeSense10_Cmd (usb_scsi)
    -------------------------------------------------------------------------
DATA_I
  Relative segment, address: 200001D0 - 200001E3 (0x14 bytes), align: 2
  Segment part 9.
           ENTRY                   ADDRESS         REF BY
           =====                   =======         ======
           Scsi_Sense_Data         200001D0        SCSI_RequestSense_Cmd (usb_scsi)
                                                   Set_Scsi_Sense_Data (usb_scsi)
    -------------------------------------------------------------------------
DATA_Z
  Relative segment, address: 2000299C - 200029A3 (0x8 bytes), align: 2
  Segment part 11.
           ENTRY                   ADDRESS         REF BY
           =====                   =======         ======
           ReadCapacity10_Data     2000299C        SCSI_ReadCapacity10_Cmd (usb_scsi)
    -------------------------------------------------------------------------
DATA_I
  Relative segment, address: 200001E4 - 200001EF (0xc bytes), align: 2
  Segment part 12.
           ENTRY                   ADDRESS         REF BY
           =====                   =======         ======
           ReadFormatCapacity_Data
                                   200001E4        SCSI_ReadFormatCapacity_Cmd (usb_scsi)
    -------------------------------------------------------------------------
DATA_ID
  Relative segment, address: 0800B940 - 0800B963 (0x24 bytes), align: 2
  Segment part 4.             Intra module refs:   Standard_Inquiry_Data
    -------------------------------------------------------------------------
DATA_ID
  Relative segment, address: 0800B964 - 0800B967 (0x4 bytes), align: 2
  Segment part 6.             Intra module refs:   Mode_Sense6_data
    -------------------------------------------------------------------------
DATA_ID
  Relative segment, address: 0800B968 - 0800B96F (0x8 bytes), align: 2
  Segment part 8.             Intra module refs:   Mode_Sense10_data
    -------------------------------------------------------------------------
DATA_ID
  Relative segment, address: 0800B970 - 0800B983 (0x14 bytes), align: 2
  Segment part 10.            Intra module refs:   Scsi_Sense_Data
    -------------------------------------------------------------------------
DATA_ID
  Relative segment, address: 0800B984 - 0800B98F (0xc bytes), align: 2
  Segment part 13.            Intra module refs:   ReadFormatCapacity_Data

    *************************************************************************

  FILE NAME : E:\My File\other\DSO\DS0201_OpenSource\DS0201_APP\project\EWARM\Debug_FLASH\Obj\stm32f10x_flash.r79
  PROGRAM MODULE, NAME : stm32f10x_flash

  SEGMENTS IN THE MODULE
  ======================
CODE
  Relative segment, address: 080095CC - 080095E3 (0x18 bytes), align: 2
  Segment part 2.
           ENTRY                   ADDRESS         REF BY
           =====                   =======         ======
           FLASH_SetLatency        080095CD        Set_System (HW_V1_Config)
    -------------------------------------------------------------------------
CODE
  Relative segment, address: 080095E4 - 080095FB (0x18 bytes), align: 2
  Segment part 4.
           ENTRY                   ADDRESS         REF BY
           =====                   =======         ======
           FLASH_PrefetchBufferCmd
                                   080095E5        Set_System (HW_V1_Config)
    -------------------------------------------------------------------------
CODE
  Relative segment, address: 080095FC - 080095FF (0x4 bytes), align: 2
  Segment part 5.             Intra module refs:   FLASH_PrefetchBufferCmd
                                                   FLASH_SetLatency

    *************************************************************************

  FILE NAME : E:\My File\other\DSO\DS0201_OpenSource\DS0201_APP\project\EWARM\Debug_FLASH\Obj\stm32f10x_gpio.r79
    *************************************************************************

  FILE NAME : E:\My File\other\DSO\DS0201_OpenSource\DS0201_APP\project\EWARM\Debug_FLASH\Obj\stm32f10x_it.r79
  PROGRAM MODULE, NAME : stm32f10x_it

  SEGMENTS IN THE MODULE
  ======================
CODE
  Relative segment, address: 08009600 - 08009601 (0x2 bytes), align: 2
  Segment part 2.
           ENTRY                   ADDRESS         REF BY
           =====                   =======         ======
           NMIException            08009601        __vector_table (stm32f10x_vector)
    -------------------------------------------------------------------------
CODE
  Relative segment, address: 08009604 - 08009605 (0x2 bytes), align: 2
  Segment part 3.
           ENTRY                   ADDRESS         REF BY
           =====                   =======         ======
           HardFaultException      08009605        __vector_table (stm32f10x_vector)
    -------------------------------------------------------------------------
CODE
  Relative segment, address: 08009608 - 08009609 (0x2 bytes), align: 2
  Segment part 4.
           ENTRY                   ADDRESS         REF BY
           =====                   =======         ======
           MemManageException      08009609        __vector_table (stm32f10x_vector)
    -------------------------------------------------------------------------
CODE
  Relative segment, address: 0800960C - 0800960D (0x2 bytes), align: 2
  Segment part 5.
           ENTRY                   ADDRESS         REF BY
           =====                   =======         ======
           BusFaultException       0800960D        __vector_table (stm32f10x_vector)
    -------------------------------------------------------------------------
CODE
  Relative segment, address: 08009610 - 08009611 (0x2 bytes), align: 2
  Segment part 6.
           ENTRY                   ADDRESS         REF BY
           =====                   =======         ======
           UsageFaultException     08009611        __vector_table (stm32f10x_vector)
    -------------------------------------------------------------------------
CODE
  Relative segment, address: 08009614 - 08009615 (0x2 bytes), align: 2
  Segment part 7.
           ENTRY                   ADDRESS         REF BY
           =====                   =======         ======
           DebugMonitor            08009615        __vector_table (stm32f10x_vector)
    -------------------------------------------------------------------------
CODE
  Relative segment, address: 08009618 - 08009619 (0x2 bytes), align: 2
  Segment part 8.
           ENTRY                   ADDRESS         REF BY
           =====                   =======         ======
           SVCHandler              08009619        __vector_table (stm32f10x_vector)
    -------------------------------------------------------------------------
CODE
  Relative segment, address: 0800961C - 0800961D (0x2 bytes), align: 2
  Segment part 9.
           ENTRY                   ADDRESS         REF BY
           =====                   =======         ======
           PendSVC                 0800961D        __vector_table (stm32f10x_vector)
    -------------------------------------------------------------------------
CODE
  Relative segment, address: 08009620 - 08009621 (0x2 bytes), align: 2
  Segment part 10.
           ENTRY                   ADDRESS         REF BY
           =====                   =======         ======
           SysTickHandler          08009621        __vector_table (stm32f10x_vector)
    -------------------------------------------------------------------------
CODE
  Relative segment, address: 08009624 - 08009625 (0x2 bytes), align: 2
  Segment part 11.
           ENTRY                   ADDRESS         REF BY
           =====                   =======         ======
           WWDG_IRQHandler         08009625        __vector_table (stm32f10x_vector)
    -------------------------------------------------------------------------
CODE
  Relative segment, address: 08009628 - 08009629 (0x2 bytes), align: 2
  Segment part 12.
           ENTRY                   ADDRESS         REF BY
           =====                   =======         ======
           PVD_IRQHandler          08009629        __vector_table (stm32f10x_vector)
    -------------------------------------------------------------------------
CODE
  Relative segment, address: 0800962C - 0800962D (0x2 bytes), align: 2
  Segment part 13.
           ENTRY                   ADDRESS         REF BY
           =====                   =======         ======
           TAMPER_IRQHandler       0800962D        __vector_table (stm32f10x_vector)
    -------------------------------------------------------------------------
CODE
  Relative segment, address: 08009630 - 08009631 (0x2 bytes), align: 2
  Segment part 14.
           ENTRY                   ADDRESS         REF BY
           =====                   =======         ======
           RTC_IRQHandler          08009631        __vector_table (stm32f10x_vector)
    -------------------------------------------------------------------------
CODE
  Relative segment, address: 08009634 - 08009635 (0x2 bytes), align: 2
  Segment part 15.
           ENTRY                   ADDRESS         REF BY
           =====                   =======         ======
           FLASH_IRQHandler        08009635        __vector_table (stm32f10x_vector)
    -------------------------------------------------------------------------
CODE
  Relative segment, address: 08009638 - 08009639 (0x2 bytes), align: 2
  Segment part 16.
           ENTRY                   ADDRESS         REF BY
           =====                   =======         ======
           RCC_IRQHandler          08009639        __vector_table (stm32f10x_vector)
    -------------------------------------------------------------------------
CODE
  Relative segment, address: 0800963C - 0800963D (0x2 bytes), align: 2
  Segment part 17.
           ENTRY                   ADDRESS         REF BY
           =====                   =======         ======
           EXTI0_IRQHandler        0800963D        __vector_table (stm32f10x_vector)
    -------------------------------------------------------------------------
CODE
  Relative segment, address: 08009640 - 08009641 (0x2 bytes), align: 2
  Segment part 18.
           ENTRY                   ADDRESS         REF BY
           =====                   =======         ======
           EXTI1_IRQHandler        08009641        __vector_table (stm32f10x_vector)
    -------------------------------------------------------------------------
CODE
  Relative segment, address: 08009644 - 08009645 (0x2 bytes), align: 2
  Segment part 19.
           ENTRY                   ADDRESS         REF BY
           =====                   =======         ======
           EXTI2_IRQHandler        08009645        __vector_table (stm32f10x_vector)
    -------------------------------------------------------------------------
CODE
  Relative segment, address: 08009648 - 08009649 (0x2 bytes), align: 2
  Segment part 20.
           ENTRY                   ADDRESS         REF BY
           =====                   =======         ======
           EXTI3_IRQHandler        08009649        __vector_table (stm32f10x_vector)
    -------------------------------------------------------------------------
CODE
  Relative segment, address: 0800964C - 0800964D (0x2 bytes), align: 2
  Segment part 21.
           ENTRY                   ADDRESS         REF BY
           =====                   =======         ======
           EXTI4_IRQHandler        0800964D        __vector_table (stm32f10x_vector)
    -------------------------------------------------------------------------
CODE
  Relative segment, address: 08009650 - 08009651 (0x2 bytes), align: 2
  Segment part 22.
           ENTRY                   ADDRESS         REF BY
           =====                   =======         ======
           DMAChannel1_IRQHandler
                                   08009651        __vector_table (stm32f10x_vector)
    -------------------------------------------------------------------------
CODE
  Relative segment, address: 08009654 - 08009655 (0x2 bytes), align: 2
  Segment part 23.
           ENTRY                   ADDRESS         REF BY
           =====                   =======         ======
           DMAChannel2_IRQHandler
                                   08009655        __vector_table (stm32f10x_vector)
    -------------------------------------------------------------------------
CODE
  Relative segment, address: 08009658 - 08009659 (0x2 bytes), align: 2
  Segment part 24.
           ENTRY                   ADDRESS         REF BY
           =====                   =======         ======
           DMAChannel3_IRQHandler
                                   08009659        __vector_table (stm32f10x_vector)
    -------------------------------------------------------------------------
CODE
  Relative segment, address: 0800965C - 0800965D (0x2 bytes), align: 2
  Segment part 25.
           ENTRY                   ADDRESS         REF BY
           =====                   =======         ======
           DMAChannel4_IRQHandler
                                   0800965D        __vector_table (stm32f10x_vector)
    -------------------------------------------------------------------------
CODE
  Relative segment, address: 08009660 - 08009661 (0x2 bytes), align: 2
  Segment part 26.
           ENTRY                   ADDRESS         REF BY
           =====                   =======         ======
           DMAChannel5_IRQHandler
                                   08009661        __vector_table (stm32f10x_vector)
    -------------------------------------------------------------------------
CODE
  Relative segment, address: 08009664 - 08009665 (0x2 bytes), align: 2
  Segment part 27.
           ENTRY                   ADDRESS         REF BY
           =====                   =======         ======
           DMAChannel6_IRQHandler
                                   08009665        __vector_table (stm32f10x_vector)
    -------------------------------------------------------------------------
CODE
  Relative segment, address: 08009668 - 08009669 (0x2 bytes), align: 2
  Segment part 28.
           ENTRY                   ADDRESS         REF BY
           =====                   =======         ======
           DMAChannel7_IRQHandler
                                   08009669        __vector_table (stm32f10x_vector)
    -------------------------------------------------------------------------
CODE
  Relative segment, address: 0800966C - 0800966D (0x2 bytes), align: 2
  Segment part 29.
           ENTRY                   ADDRESS         REF BY
           =====                   =======         ======
           ADC_IRQHandler          0800966D        __vector_table (stm32f10x_vector)
    -------------------------------------------------------------------------
CODE
  Relative segment, address: 08009670 - 08009677 (0x8 bytes), align: 2
  Segment part 30.
           ENTRY                   ADDRESS         REF BY
           =====                   =======         ======
           USB_HP_CAN_TX_IRQHandler
                                   08009671        __vector_table (stm32f10x_vector)
               stack 1 = 00000000 ( 00000004 )
    -------------------------------------------------------------------------
CODE
  Relative segment, address: 08009678 - 0800967F (0x8 bytes), align: 2
  Segment part 31.
           ENTRY                   ADDRESS         REF BY
           =====                   =======         ======
           USB_LP_CAN_RX0_IRQHandler
                                   08009679        __vector_table (stm32f10x_vector)
               stack 1 = 00000000 ( 00000004 )
    -------------------------------------------------------------------------
CODE
  Relative segment, address: 08009680 - 08009681 (0x2 bytes), align: 2
  Segment part 32.
           ENTRY                   ADDRESS         REF BY
           =====                   =======         ======
           CAN_RX1_IRQHandler      08009681        __vector_table (stm32f10x_vector)
    -------------------------------------------------------------------------
CODE
  Relative segment, address: 08009684 - 08009685 (0x2 bytes), align: 2
  Segment part 33.
           ENTRY                   ADDRESS         REF BY
           =====                   =======         ======
           CAN_SCE_IRQHandler      08009685        __vector_table (stm32f10x_vector)
    -------------------------------------------------------------------------
CODE
  Relative segment, address: 08009688 - 08009689 (0x2 bytes), align: 2
  Segment part 34.
           ENTRY                   ADDRESS         REF BY
           =====                   =======         ======
           EXTI9_5_IRQHandler      08009689        __vector_table (stm32f10x_vector)
    -------------------------------------------------------------------------
CODE
  Relative segment, address: 0800968C - 0800968D (0x2 bytes), align: 2
  Segment part 35.
           ENTRY                   ADDRESS         REF BY
           =====                   =======         ======
           TIM1_BRK_IRQHandler     0800968D        __vector_table (stm32f10x_vector)
    -------------------------------------------------------------------------
CODE
  Relative segment, address: 08009690 - 08009691 (0x2 bytes), align: 2
  Segment part 36.
           ENTRY                   ADDRESS         REF BY
           =====                   =======         ======
           TIM1_UP_IRQHandler      08009691        __vector_table (stm32f10x_vector)
    -------------------------------------------------------------------------
CODE
  Relative segment, address: 08009694 - 08009695 (0x2 bytes), align: 2
  Segment part 37.
           ENTRY                   ADDRESS         REF BY
           =====                   =======         ======
           TIM1_TRG_COM_IRQHandler
                                   08009695        __vector_table (stm32f10x_vector)
    -------------------------------------------------------------------------
CODE
  Relative segment, address: 08009698 - 08009699 (0x2 bytes), align: 2
  Segment part 38.
           ENTRY                   ADDRESS         REF BY
           =====                   =======         ======
           TIM1_CC_IRQHandler      08009699        __vector_table (stm32f10x_vector)
    -------------------------------------------------------------------------
CODE
  Relative segment, address: 0800969C - 0800969D (0x2 bytes), align: 2
  Segment part 39.
           ENTRY                   ADDRESS         REF BY
           =====                   =======         ======
           TIM2_IRQHandler         0800969D        __vector_table (stm32f10x_vector)
    -------------------------------------------------------------------------
CODE
  Relative segment, address: 080096A0 - 0800975F (0xc0 bytes), align: 2
  Segment part 40.
           ENTRY                   ADDRESS         REF BY
           =====                   =======         ======
           TIM3_IRQHandler         080096A1        __vector_table (stm32f10x_vector)
               stack 1 = 00000000 ( 00000008 )
    -------------------------------------------------------------------------
CODE
  Relative segment, address: 08009760 - 08009761 (0x2 bytes), align: 2
  Segment part 41.
           ENTRY                   ADDRESS         REF BY
           =====                   =======         ======
           TIM4_IRQHandler         08009761        __vector_table (stm32f10x_vector)
    -------------------------------------------------------------------------
CODE
  Relative segment, address: 08009764 - 08009765 (0x2 bytes), align: 2
  Segment part 42.
           ENTRY                   ADDRESS         REF BY
           =====                   =======         ======
           I2C1_EV_IRQHandler      08009765        __vector_table (stm32f10x_vector)
    -------------------------------------------------------------------------
CODE
  Relative segment, address: 08009768 - 08009769 (0x2 bytes), align: 2
  Segment part 43.
           ENTRY                   ADDRESS         REF BY
           =====                   =======         ======
           I2C1_ER_IRQHandler      08009769        __vector_table (stm32f10x_vector)
    -------------------------------------------------------------------------
CODE
  Relative segment, address: 0800976C - 0800976D (0x2 bytes), align: 2
  Segment part 44.
           ENTRY                   ADDRESS         REF BY
           =====                   =======         ======
           I2C2_EV_IRQHandler      0800976D        __vector_table (stm32f10x_vector)
    -------------------------------------------------------------------------
CODE
  Relative segment, address: 08009770 - 08009771 (0x2 bytes), align: 2
  Segment part 45.
           ENTRY                   ADDRESS         REF BY
           =====                   =======         ======
           I2C2_ER_IRQHandler      08009771        __vector_table (stm32f10x_vector)
    -------------------------------------------------------------------------
CODE
  Relative segment, address: 08009774 - 08009775 (0x2 bytes), align: 2
  Segment part 46.
           ENTRY                   ADDRESS         REF BY
           =====                   =======         ======
           SPI1_IRQHandler         08009775        __vector_table (stm32f10x_vector)
    -------------------------------------------------------------------------
CODE
  Relative segment, address: 08009778 - 08009779 (0x2 bytes), align: 2
  Segment part 47.
           ENTRY                   ADDRESS         REF BY
           =====                   =======         ======
           SPI2_IRQHandler         08009779        __vector_table (stm32f10x_vector)
    -------------------------------------------------------------------------
CODE
  Relative segment, address: 0800977C - 0800977D (0x2 bytes), align: 2
  Segment part 48.
           ENTRY                   ADDRESS         REF BY
           =====                   =======         ======
           USART1_IRQHandler       0800977D        __vector_table (stm32f10x_vector)
    -------------------------------------------------------------------------
CODE
  Relative segment, address: 08009780 - 08009781 (0x2 bytes), align: 2
  Segment part 49.
           ENTRY                   ADDRESS         REF BY
           =====                   =======         ======
           USART2_IRQHandler       08009781        __vector_table (stm32f10x_vector)
    -------------------------------------------------------------------------
CODE
  Relative segment, address: 08009784 - 08009785 (0x2 bytes), align: 2
  Segment part 50.
           ENTRY                   ADDRESS         REF BY
           =====                   =======         ======
           USART3_IRQHandler       08009785        __vector_table (stm32f10x_vector)
    -------------------------------------------------------------------------
CODE
  Relative segment, address: 08009788 - 08009789 (0x2 bytes), align: 2
  Segment part 51.
           ENTRY                   ADDRESS         REF BY
           =====                   =======         ======
           EXTI15_10_IRQHandler    08009789        __vector_table (stm32f10x_vector)
    -------------------------------------------------------------------------
CODE
  Relative segment, address: 0800978C - 0800978D (0x2 bytes), align: 2
  Segment part 52.
           ENTRY                   ADDRESS         REF BY
           =====                   =======         ======
           RTCAlarm_IRQHandler     0800978D        __vector_table (stm32f10x_vector)
    -------------------------------------------------------------------------
CODE
  Relative segment, address: 08009790 - 08009791 (0x2 bytes), align: 2
  Segment part 53.
           ENTRY                   ADDRESS         REF BY
           =====                   =======         ======
           USBWakeUp_IRQHandler    08009791        __vector_table (stm32f10x_vector)

    *************************************************************************

  FILE NAME : E:\My File\other\DSO\DS0201_OpenSource\DS0201_APP\project\EWARM\Debug_FLASH\Obj\stm32f10x_lib.r79
    *************************************************************************

  FILE NAME : E:\My File\other\DSO\DS0201_OpenSource\DS0201_APP\project\EWARM\Debug_FLASH\Obj\stm32f10x_nvic.r79
  PROGRAM MODULE, NAME : stm32f10x_nvic

  SEGMENTS IN THE MODULE
  ======================
CODE
  Relative segment, address: 08009794 - 0800979D (0xa bytes), align: 2
  Segment part 8.
           ENTRY                   ADDRESS         REF BY
           =====                   =======         ======
           NVIC_PriorityGroupConfig
                                   08009795        NVIC_Configuration (HW_V1_Config)
    -------------------------------------------------------------------------
CODE
  Relative segment, address: 080097A0 - 080097A3 (0x4 bytes), align: 2
  Segment part 9.             Intra module refs:   NVIC_PriorityGroupConfig
    -------------------------------------------------------------------------
CODE
  Relative segment, address: 080097A4 - 0800986F (0xcc bytes), align: 2
  Segment part 10.
           ENTRY                   ADDRESS         REF BY
           =====                   =======         ======
           NVIC_Init               080097A5        NVIC_Configuration (HW_V1_Config)
               stack 1 = 00000000 ( 00000014 )
    -------------------------------------------------------------------------
CODE
  Relative segment, address: 08009870 - 08009873 (0x4 bytes), align: 2
  Segment part 11.            Intra module refs:   NVIC_Init
    -------------------------------------------------------------------------
CODE
  Relative segment, address: 08009874 - 08009877 (0x4 bytes), align: 2
  Segment part 12.            Intra module refs:   NVIC_Init
    -------------------------------------------------------------------------
CODE
  Relative segment, address: 08009878 - 08009887 (0x10 bytes), align: 2
  Segment part 29.
           ENTRY                   ADDRESS         REF BY
           =====                   =======         ======
           NVIC_SetVectorTable     08009879        NVIC_Configuration (HW_V1_Config)
    -------------------------------------------------------------------------
CODE
  Relative segment, address: 08009888 - 0800988B (0x4 bytes), align: 2
  Segment part 30.            Intra module refs:   NVIC_SetVectorTable
    -------------------------------------------------------------------------
CODE
  Relative segment, address: 0800988C - 0800988F (0x4 bytes), align: 2
  Segment part 33.            Intra module refs:   NVIC_Init
                                                   NVIC_PriorityGroupConfig

    *************************************************************************

  FILE NAME : E:\My File\other\DSO\DS0201_OpenSource\DS0201_APP\project\EWARM\Debug_FLASH\Obj\stm32f10x_rcc.r79
  PROGRAM MODULE, NAME : stm32f10x_rcc

  SEGMENTS IN THE MODULE
  ======================
DATA_Z
  Relative segment, address: 20002A85 - 20002A85 (0x1 bytes), align: 0
  Segment part 4.             Intra module refs:   RCC_WaitForHSEStartUp
           LOCAL                   ADDRESS         
           =====                   =======         
           HSEStatus               20002A85 
    -------------------------------------------------------------------------
DATA_Z
  Relative segment, address: 200029A4 - 200029A7 (0x4 bytes), align: 2
  Segment part 5.             Intra module refs:   RCC_WaitForHSEStartUp
           LOCAL                   ADDRESS         
           =====                   =======         
           StartUpCounter          200029A4 
    -------------------------------------------------------------------------
CODE
  Relative segment, address: 08009890 - 080098FF (0x70 bytes), align: 2
  Segment part 6.
           ENTRY                   ADDRESS         REF BY
           =====                   =======         ======
           RCC_DeInit              08009891        Set_System (HW_V1_Config)
    -------------------------------------------------------------------------
CODE
  Relative segment, address: 08009900 - 08009903 (0x4 bytes), align: 2
  Segment part 7.             Intra module refs:   RCC_DeInit
    -------------------------------------------------------------------------
CODE
  Relative segment, address: 08009904 - 08009907 (0x4 bytes), align: 2
  Segment part 8.             Intra module refs:   RCC_DeInit
    -------------------------------------------------------------------------
CODE
  Relative segment, address: 08009908 - 0800990B (0x4 bytes), align: 2
  Segment part 9.             Intra module refs:   RCC_DeInit
    -------------------------------------------------------------------------
CODE
  Relative segment, address: 0800990C - 0800990F (0x4 bytes), align: 2
  Segment part 10.            Intra module refs:   RCC_DeInit
    -------------------------------------------------------------------------
CODE
  Relative segment, address: 08009910 - 08009913 (0x4 bytes), align: 2
  Segment part 11.            Intra module refs:   RCC_DeInit
    -------------------------------------------------------------------------
CODE
  Relative segment, address: 08009914 - 08009917 (0x4 bytes), align: 2
  Segment part 12.            Intra module refs:   RCC_DeInit
    -------------------------------------------------------------------------
CODE
  Relative segment, address: 08009918 - 08009965 (0x4e bytes), align: 2
  Segment part 13.
           ENTRY                   ADDRESS         REF BY
           =====                   =======         ======
           RCC_HSEConfig           08009919        Set_System (HW_V1_Config)
               stack 1 = 00000000 ( 00000004 )
    -------------------------------------------------------------------------
CODE
  Relative segment, address: 08009968 - 080099A7 (0x40 bytes), align: 2
  Segment part 14.
           ENTRY                   ADDRESS         REF BY
           =====                   =======         ======
           RCC_WaitForHSEStartUp   08009969        Set_System (HW_V1_Config)
               stack 1 = 00000000 ( 00000004 )
    -------------------------------------------------------------------------
CODE
  Relative segment, address: 080099A8 - 080099AB (0x4 bytes), align: 2
  Segment part 16.            Intra module refs:   RCC_DeInit
                                                   RCC_HSEConfig
    -------------------------------------------------------------------------
CODE
  Relative segment, address: 080099AC - 080099CB (0x20 bytes), align: 2
  Segment part 18.
           ENTRY                   ADDRESS         REF BY
           =====                   =======         ======
           RCC_PLLConfig           080099AD        Set_System (HW_V1_Config)
    -------------------------------------------------------------------------
CODE
  Relative segment, address: 080099CC - 080099DB (0x10 bytes), align: 2
  Segment part 19.
           ENTRY                   ADDRESS         REF BY
           =====                   =======         ======
           RCC_PLLCmd              080099CD        Set_System (HW_V1_Config)
    -------------------------------------------------------------------------
CODE
  Relative segment, address: 080099DC - 080099F1 (0x16 bytes), align: 2
  Segment part 20.
           ENTRY                   ADDRESS         REF BY
           =====                   =======         ======
           RCC_SYSCLKConfig        080099DD        Set_System (HW_V1_Config)
    -------------------------------------------------------------------------
CODE
  Relative segment, address: 080099F4 - 080099FD (0xa bytes), align: 2
  Segment part 21.
           ENTRY                   ADDRESS         REF BY
           =====                   =======         ======
           RCC_GetSYSCLKSource     080099F5        Set_System (HW_V1_Config)
    -------------------------------------------------------------------------
CODE
  Relative segment, address: 08009A00 - 08009A15 (0x16 bytes), align: 2
  Segment part 22.
           ENTRY                   ADDRESS         REF BY
           =====                   =======         ======
           RCC_HCLKConfig          08009A01        Set_System (HW_V1_Config)
    -------------------------------------------------------------------------
CODE
  Relative segment, address: 08009A18 - 08009A31 (0x1a bytes), align: 2
  Segment part 23.
           ENTRY                   ADDRESS         REF BY
           =====                   =======         ======
           RCC_PCLK1Config         08009A19        Set_System (HW_V1_Config)
    -------------------------------------------------------------------------
CODE
  Relative segment, address: 08009A34 - 08009A4F (0x1c bytes), align: 2
  Segment part 24.
           ENTRY                   ADDRESS         REF BY
           =====                   =======         ======
           RCC_PCLK2Config         08009A35        Set_System (HW_V1_Config)
    -------------------------------------------------------------------------
CODE
  Relative segment, address: 08009A50 - 08009A5B (0xc bytes), align: 2
  Segment part 26.
           ENTRY                   ADDRESS         REF BY
           =====                   =======         ======
           RCC_USBCLKConfig        08009A51        Set_System (HW_V1_Config)
    -------------------------------------------------------------------------
CODE
  Relative segment, address: 08009A5C - 08009A75 (0x1a bytes), align: 2
  Segment part 27.
           ENTRY                   ADDRESS         REF BY
           =====                   =======         ======
           RCC_ADCCLKConfig        08009A5D        Set_System (HW_V1_Config)
    -------------------------------------------------------------------------
CODE
  Relative segment, address: 08009A78 - 08009A7B (0x4 bytes), align: 2
  Segment part 28.            Intra module refs:   RCC_ADCCLKConfig
                                                   RCC_DeInit
                                                   RCC_GetSYSCLKSource
                                                   RCC_HCLKConfig
                                                   RCC_PCLK1Config
                                                   RCC_PCLK2Config
                                                   RCC_PLLConfig
                                                   RCC_SYSCLKConfig
    -------------------------------------------------------------------------
CODE
  Relative segment, address: 08009A7C - 08009A97 (0x1c bytes), align: 2
  Segment part 35.
           ENTRY                   ADDRESS         REF BY
           =====                   =======         ======
           RCC_AHBPeriphClockCmd   08009A7D        Set_System (HW_V1_Config)
    -------------------------------------------------------------------------
CODE
  Relative segment, address: 08009A98 - 08009A9B (0x4 bytes), align: 2
  Segment part 36.            Intra module refs:   RCC_AHBPeriphClockCmd
    -------------------------------------------------------------------------
CODE
  Relative segment, address: 08009A9C - 08009AB7 (0x1c bytes), align: 2
  Segment part 37.
           ENTRY                   ADDRESS         REF BY
           =====                   =======         ======
           RCC_APB2PeriphClockCmd
                                   08009A9D        Set_System (HW_V1_Config)
    -------------------------------------------------------------------------
CODE
  Relative segment, address: 08009AB8 - 08009ABB (0x4 bytes), align: 2
  Segment part 38.            Intra module refs:   RCC_APB2PeriphClockCmd
    -------------------------------------------------------------------------
CODE
  Relative segment, address: 08009ABC - 08009AD7 (0x1c bytes), align: 2
  Segment part 39.
           ENTRY                   ADDRESS         REF BY
           =====                   =======         ======
           RCC_APB1PeriphClockCmd
                                   08009ABD        Set_System (HW_V1_Config)
    -------------------------------------------------------------------------
CODE
  Relative segment, address: 08009AD8 - 08009ADB (0x4 bytes), align: 2
  Segment part 40.            Intra module refs:   RCC_APB1PeriphClockCmd
    -------------------------------------------------------------------------
CODE
  Relative segment, address: 08009ADC - 08009B39 (0x5e bytes), align: 2
  Segment part 48.            Intra module refs:   RCC_WaitForHSEStartUp
           ENTRY                   ADDRESS         REF BY
           =====                   =======         ======
           RCC_GetFlagStatus       08009ADD        Set_System (HW_V1_Config)
               stack 1 = 00000000 ( 00000004 )
    -------------------------------------------------------------------------
CODE
  Relative segment, address: 08009B3C - 08009B3F (0x4 bytes), align: 2
  Segment part 49.            Intra module refs:   RCC_GetFlagStatus
    -------------------------------------------------------------------------
CODE
  Relative segment, address: 08009B40 - 08009B43 (0x4 bytes), align: 2
  Segment part 50.            Intra module refs:   RCC_GetFlagStatus
    -------------------------------------------------------------------------
CODE
  Relative segment, address: 08009B44 - 08009B47 (0x4 bytes), align: 2
  Segment part 52.            Intra module refs:   RCC_GetFlagStatus

    *************************************************************************

  FILE NAME : E:\My File\other\DSO\DS0201_OpenSource\DS0201_APP\project\EWARM\Debug_FLASH\Obj\stm32f10x_spi.r79
  PROGRAM MODULE, NAME : stm32f10x_spi

  SEGMENTS IN THE MODULE
  ======================
CODE
  Relative segment, address: 08009B48 - 08009B81 (0x3a bytes), align: 2
  Segment part 3.
           ENTRY                   ADDRESS         REF BY
           =====                   =======         ======
           SPI_Init                08009B49        SPI_Config (HW_V1_Config)
               stack 1 = 00000000 ( 00000008 )
    -------------------------------------------------------------------------
CODE
  Relative segment, address: 08009B84 - 08009B9F (0x1c bytes), align: 2
  Segment part 5.
           ENTRY                   ADDRESS         REF BY
           =====                   =======         ======
           SPI_Cmd                 08009B85        SPI_Config (HW_V1_Config)
    -------------------------------------------------------------------------
CODE
  Relative segment, address: 08009BA0 - 08009BA3 (0x4 bytes), align: 2
  Segment part 8.
           ENTRY                   ADDRESS         REF BY
           =====                   =======         ======
           SPI_SendData            08009BA1        MSD_ReadByte (HW_V1_Config)
                                                   MSD_WriteByte (HW_V1_Config)
    -------------------------------------------------------------------------
CODE
  Relative segment, address: 08009BA4 - 08009BA7 (0x4 bytes), align: 2
  Segment part 9.
           ENTRY                   ADDRESS         REF BY
           =====                   =======         ======
           SPI_ReceiveData         08009BA5        MSD_ReadByte (HW_V1_Config)
    -------------------------------------------------------------------------
CODE
  Relative segment, address: 08009BA8 - 08009BC1 (0x1a bytes), align: 2
  Segment part 18.
           ENTRY                   ADDRESS         REF BY
           =====                   =======         ======
           SPI_GetFlagStatus       08009BA9        MSD_ReadByte (HW_V1_Config)
                                                   MSD_WriteByte (HW_V1_Config)
               stack 1 = 00000000 ( 00000004 )

    *************************************************************************

  FILE NAME : E:\My File\other\DSO\DS0201_OpenSource\DS0201_APP\project\EWARM\Debug_FLASH\Obj\stm32f10x_systick.r79
    *************************************************************************

  FILE NAME : E:\My File\other\DSO\DS0201_OpenSource\DS0201_APP\project\EWARM\Debug_FLASH\Obj\stm32f10x_vector.r79
  PROGRAM MODULE, NAME : stm32f10x_vector

  SEGMENTS IN THE MODULE
  ======================
INTVEC
  Relative segment, address: 08004000 - 080040EB (0xec bytes), align: 2
  Segment part 2.
           ENTRY                   ADDRESS         REF BY
           =====                   =======         ======
           __vector_table          08004000        __program_start (?CMAIN)
    -------------------------------------------------------------------------
CSTACK
  Relative segment, address: 20002A8C, align: 2
  Segment part 1.

    *************************************************************************

  FILE NAME : E:\My File\other\DSO\DS0201_OpenSource\DS0201_APP\project\EWARM\Debug_FLASH\Obj\usb_bot.r79
  PROGRAM MODULE, NAME : usb_bot

  SEGMENTS IN THE MODULE
  ======================
DATA_Z
  Relative segment, address: 20002A86 - 20002A86 (0x1 bytes), align: 0
  Segment part 2.             Intra module refs:   Segment part 14
                                                   Segment part 18
           ENTRY                   ADDRESS         REF BY
           =====                   =======         ======
           Bot_State               20002A86        Segment part 15 (memory)
                                                   Segment part 18 (usb_scsi)
                                                   Segment part 25 (usb_prop)
    -------------------------------------------------------------------------
DATA_Z
  Relative segment, address: 200029A8 - 200029E7 (0x40 bytes), align: 2
  Segment part 3.             Intra module refs:   Segment part 10
           ENTRY                   ADDRESS         REF BY
           =====                   =======         ======
           Bulk_Data_Buff          200029A8        Write_Memory (memory)
    -------------------------------------------------------------------------
DATA_Z
  Relative segment, address: 20002A68 - 20002A69 (0x2 bytes), align: 1
  Segment part 4.             Intra module refs:   Segment part 11
           ENTRY                   ADDRESS         REF BY
           =====                   =======         ======
           Data_Len                20002A68        Write_Memory (memory)
    -------------------------------------------------------------------------
DATA_Z
  Relative segment, address: 200029E8 - 20002A07 (0x20 bytes), align: 2
  Segment part 5.             Intra module refs:   CBW_Decode
                                                   Segment part 12
           ENTRY                   ADDRESS         REF BY
           =====                   =======         ======
           CBW                     200029E8        Address_Management_Test (memory)
                                                   Segment part 13 (usb_scsi)
                                                   Segment part 20 (usb_scsi)
                                                   Segment part 23 (usb_prop)
                                                   Segment part 23 (usb_scsi)
                                                   Segment part 24 (usb_scsi)
    -------------------------------------------------------------------------
DATA_Z
  Relative segment, address: 20002A08 - 20002A17 (0x10 bytes), align: 2
  Segment part 6.             Intra module refs:   CBW_Decode
                                                   Segment part 15
                                                   Segment part 17
                                                   Set_CSW
           ENTRY                   ADDRESS         REF BY
           =====                   =======         ======
           CSW                     20002A08        Segment part 14 (memory)
    -------------------------------------------------------------------------
CODE
  Relative segment, address: 08009BC4 - 08009C0B (0x48 bytes), align: 2
  Segment part 7.
           ENTRY                   ADDRESS         REF BY
           =====                   =======         ======
           Mass_Storage_In         08009BC5        EP1_IN_Callback (usb_endp)
               stack 1 = 00000000 ( 00000004 )
    -------------------------------------------------------------------------
CODE
  Relative segment, address: 08009C0C - 08009C77 (0x6c bytes), align: 2
  Segment part 8.
           ENTRY                   ADDRESS         REF BY
           =====                   =======         ======
           Mass_Storage_Out        08009C0D        EP2_OUT_Callback (usb_endp)
               stack 1 = 00000000 ( 00000008 )
    -------------------------------------------------------------------------
CODE
  Relative segment, address: 08009C78 - 08009E4F (0x1d8 bytes), align: 2
  Segment part 9.             Intra module refs:   Mass_Storage_Out
           ENTRY                   ADDRESS         REF BY
           =====                   =======         ======
           CBW_Decode              08009C79 
               stack 1 = 00000000 ( 00000008 )
    -------------------------------------------------------------------------
CODE
  Relative segment, address: 08009E50 - 08009E53 (0x4 bytes), align: 2
  Segment part 10.            Intra module refs:   CBW_Decode
                                                   Mass_Storage_Out
    -------------------------------------------------------------------------
CODE
  Relative segment, address: 08009E54 - 08009E57 (0x4 bytes), align: 2
  Segment part 11.            Intra module refs:   CBW_Decode
                                                   Mass_Storage_Out
    -------------------------------------------------------------------------
CODE
  Relative segment, address: 08009E58 - 08009E5B (0x4 bytes), align: 2
  Segment part 12.            Intra module refs:   CBW_Decode
                                                   Mass_Storage_In
                                                   Mass_Storage_Out
    -------------------------------------------------------------------------
CODE
  Relative segment, address: 08009E5C - 08009E97 (0x3c bytes), align: 2
  Segment part 13.
           ENTRY                   ADDRESS         REF BY
           =====                   =======         ======
           Transfer_Data_Request   08009E5D        SCSI_Inquiry_Cmd (usb_scsi)
                                                   SCSI_ModeSense10_Cmd (usb_scsi)
                                                   SCSI_ModeSense6_Cmd (usb_scsi)
                                                   SCSI_ReadCapacity10_Cmd (usb_scsi)
                                                   SCSI_ReadFormatCapacity_Cmd (usb_scsi)
                                                   SCSI_RequestSense_Cmd (usb_scsi)
               stack 1 = 00000000 ( 0000000C )
    -------------------------------------------------------------------------
CODE
  Relative segment, address: 08009E98 - 08009E9B (0x4 bytes), align: 2
  Segment part 14.            Intra module refs:   Mass_Storage_In
                                                   Mass_Storage_Out
                                                   Transfer_Data_Request
    -------------------------------------------------------------------------
CODE
  Relative segment, address: 08009E9C - 08009E9F (0x4 bytes), align: 2
  Segment part 15.            Intra module refs:   CBW_Decode
                                                   Transfer_Data_Request
    -------------------------------------------------------------------------
CODE
  Relative segment, address: 08009EA0 - 08009EE3 (0x44 bytes), align: 2
  Segment part 16.            Intra module refs:   CBW_Decode
                                                   Mass_Storage_In
                                                   Mass_Storage_Out
           ENTRY                   ADDRESS         REF BY
           =====                   =======         ======
           Set_CSW                 08009EA1        Address_Management_Test (memory)
                                                   SCSI_Invalid_Cmd (usb_scsi)
                                                   SCSI_Read10_Cmd (usb_scsi)
                                                   SCSI_Start_Stop_Unit_Cmd (usb_scsi)
                                                   SCSI_Valid_Cmd (usb_scsi)
                                                   SCSI_Verify10_Cmd (usb_scsi)
                                                   SCSI_Write10_Cmd (usb_scsi)
                                                   Write_Memory (memory)
               stack 1 = 00000000 ( 0000000C )
    -------------------------------------------------------------------------
CODE
  Relative segment, address: 08009EE4 - 08009EE7 (0x4 bytes), align: 2
  Segment part 17.            Intra module refs:   Set_CSW
                                                   Transfer_Data_Request
    -------------------------------------------------------------------------
CODE
  Relative segment, address: 08009EE8 - 08009EEB (0x4 bytes), align: 2
  Segment part 18.            Intra module refs:   Set_CSW
    -------------------------------------------------------------------------
CODE
  Relative segment, address: 08009EEC - 08009F2D (0x42 bytes), align: 2
  Segment part 19.            Intra module refs:   CBW_Decode
                                                   Mass_Storage_Out
           ENTRY                   ADDRESS         REF BY
           =====                   =======         ======
           Bot_Abort               08009EED        Address_Management_Test (memory)
                                                   Mass_Storage_ClearFeature (usb_prop)
                                                   SCSI_Invalid_Cmd (usb_scsi)
                                                   SCSI_Read10_Cmd (usb_scsi)
                                                   SCSI_Valid_Cmd (usb_scsi)
                                                   SCSI_Verify10_Cmd (usb_scsi)
                                                   SCSI_Write10_Cmd (usb_scsi)
               stack 1 = 00000000 ( 00000008 )

    *************************************************************************

  FILE NAME : E:\My File\other\DSO\DS0201_OpenSource\DS0201_APP\project\EWARM\Debug_FLASH\Obj\usb_core.r79
  PROGRAM MODULE, NAME : usb_core

  SEGMENTS IN THE MODULE
  ======================
DATA_Z
  Relative segment, address: 20002A6A - 20002A6B (0x2 bytes), align: 1
  Segment part 2.             Intra module refs:   Standard_GetStatus
           ENTRY                   ADDRESS         REF BY
           =====                   =======         ======
           StatusInfo              20002A6A 
    -------------------------------------------------------------------------
CODE
  Relative segment, address: 08009F30 - 08009F53 (0x24 bytes), align: 2
  Segment part 3.             Intra module refs:   Data_Setup0
           ENTRY                   ADDRESS         REF BY
           =====                   =======         ======
           Standard_GetConfiguration
                                   08009F31 
               stack 1 = 00000000 ( 00000008 )
    -------------------------------------------------------------------------
CODE
  Relative segment, address: 08009F54 - 08009F97 (0x44 bytes), align: 2
  Segment part 4.             Intra module refs:   NoData_Setup0
           ENTRY                   ADDRESS         REF BY
           =====                   =======         ======
           Standard_SetConfiguration
                                   08009F55 
               stack 1 = 00000000 ( 00000004 )
    -------------------------------------------------------------------------
CODE
  Relative segment, address: 08009F98 - 08009FBB (0x24 bytes), align: 2
  Segment part 5.             Intra module refs:   Data_Setup0
           ENTRY                   ADDRESS         REF BY
           =====                   =======         ======
           Standard_GetInterface   08009F99 
               stack 1 = 00000000 ( 00000008 )
    -------------------------------------------------------------------------
CODE
  Relative segment, address: 08009FBC - 0800A025 (0x6a bytes), align: 2
  Segment part 6.             Intra module refs:   NoData_Setup0
           ENTRY                   ADDRESS         REF BY
           =====                   =======         ======
           Standard_SetInterface   08009FBD 
               stack 1 = 00000000 ( 00000008 )
    -------------------------------------------------------------------------
CODE
  Relative segment, address: 0800A028 - 0800A02B (0x4 bytes), align: 2
  Segment part 7.             Intra module refs:   Standard_SetInterface
    -------------------------------------------------------------------------
CODE
  Relative segment, address: 0800A02C - 0800A113 (0xe8 bytes), align: 2
  Segment part 8.             Intra module refs:   Data_Setup0
           ENTRY                   ADDRESS         REF BY
           =====                   =======         ======
           Standard_GetStatus      0800A02D 
               stack 1 = 00000000 ( 00000008 )
    -------------------------------------------------------------------------
CODE
  Relative segment, address: 0800A114 - 0800A117 (0x4 bytes), align: 2
  Segment part 9.             Intra module refs:   Standard_GetConfiguration
                                                   Standard_GetInterface
                                                   Standard_GetStatus
                                                   Standard_SetConfiguration
                                                   Standard_SetInterface
    -------------------------------------------------------------------------
CODE
  Relative segment, address: 0800A118 - 0800A11B (0x4 bytes), align: 2
  Segment part 10.            Intra module refs:   Standard_GetConfiguration
                                                   Standard_GetInterface
                                                   Standard_GetStatus
                                                   Standard_SetConfiguration
                                                   Standard_SetInterface
    -------------------------------------------------------------------------
CODE
  Relative segment, address: 0800A11C - 0800A271 (0x156 bytes), align: 2
  Segment part 11.            Intra module refs:   NoData_Setup0
           ENTRY                   ADDRESS         REF BY
           =====                   =======         ======
           Standard_ClearFeature   0800A11D 
               stack 1 = 00000000 ( 0000001C )
    -------------------------------------------------------------------------
CODE
  Relative segment, address: 0800A274 - 0800A277 (0x4 bytes), align: 2
  Segment part 12.            Intra module refs:   Standard_ClearFeature
    -------------------------------------------------------------------------
CODE
  Relative segment, address: 0800A278 - 0800A327 (0xb0 bytes), align: 2
  Segment part 13.            Intra module refs:   NoData_Setup0
           ENTRY                   ADDRESS         REF BY
           =====                   =======         ======
           Standard_SetEndPointFeature
                                   0800A279 
               stack 1 = 00000000 ( 00000014 )
    -------------------------------------------------------------------------
CODE
  Relative segment, address: 0800A328 - 0800A32B (0x4 bytes), align: 2
  Segment part 14.            Intra module refs:   Standard_ClearFeature
                                                   Standard_SetEndPointFeature
    -------------------------------------------------------------------------
CODE
  Relative segment, address: 0800A32C - 0800A32F (0x4 bytes), align: 2
  Segment part 15.            Intra module refs:   Standard_ClearFeature
                                                   Standard_SetEndPointFeature
    -------------------------------------------------------------------------
CODE
  Relative segment, address: 0800A330 - 0800A333 (0x4 bytes), align: 2
  Segment part 16.            Intra module refs:   Standard_ClearFeature
                                                   Standard_GetStatus
                                                   Standard_SetEndPointFeature
    -------------------------------------------------------------------------
CODE
  Relative segment, address: 0800A334 - 0800A351 (0x1e bytes), align: 2
  Segment part 17.            Intra module refs:   NoData_Setup0
           ENTRY                   ADDRESS         REF BY
           =====                   =======         ======
           Standard_SetDeviceFeature
                                   0800A335 
               stack 1 = 00000000 ( 00000004 )
    -------------------------------------------------------------------------
CODE
  Relative segment, address: 0800A354 - 0800A357 (0x4 bytes), align: 2
  Segment part 18.            Intra module refs:   Standard_ClearFeature
                                                   Standard_SetDeviceFeature
                                                   Standard_SetEndPointFeature
    -------------------------------------------------------------------------
CODE
  Relative segment, address: 0800A358 - 0800A37F (0x28 bytes), align: 2
  Segment part 19.
           ENTRY                   ADDRESS         REF BY
           =====                   =======         ======
           Standard_GetDescriptorData
                                   0800A359        MASS_GetConfigDescriptor (usb_prop)
                                                   MASS_GetDeviceDescriptor (usb_prop)
                                                   MASS_GetStringDescriptor (usb_prop)
               stack 1 = 00000000 ( 00000008 )
    -------------------------------------------------------------------------
CODE
  Relative segment, address: 0800A380 - 0800A383 (0x4 bytes), align: 2
  Segment part 20.            Intra module refs:   Standard_ClearFeature
                                                   Standard_GetDescriptorData
                                                   Standard_SetDeviceFeature
                                                   Standard_SetEndPointFeature
    -------------------------------------------------------------------------
CODE
  Relative segment, address: 0800A384 - 0800A43B (0xb8 bytes), align: 2
  Segment part 21.            Intra module refs:   Out0_Process
           LOCAL                   ADDRESS         
           =====                   =======         
           DataStageOut            0800A385 
               stack 1 = 00000000 ( 00000014 )
    -------------------------------------------------------------------------
CODE
  Relative segment, address: 0800A43C - 0800A4D1 (0x96 bytes), align: 2
  Segment part 22.            Intra module refs:   Data_Setup0
                                                   In0_Process
           LOCAL                   ADDRESS         
           =====                   =======         
           DataStageIn             0800A43D 
               stack 1 = 00000000 ( 00000018 )
    -------------------------------------------------------------------------
CODE
  Relative segment, address: 0800A4D4 - 0800A4D7 (0x4 bytes), align: 2
  Segment part 23.            Intra module refs:   DataStageIn
                                                   DataStageOut
    -------------------------------------------------------------------------
CODE
  Relative segment, address: 0800A4D8 - 0800A625 (0x14e bytes), align: 2
  Segment part 24.            Intra module refs:   Setup0_Process
           LOCAL                   ADDRESS         
           =====                   =======         
           NoData_Setup0           0800A4D9 
               stack 1 = 00000000 ( 00000010 )
    -------------------------------------------------------------------------
CODE
  Relative segment, address: 0800A628 - 0800A62B (0x4 bytes), align: 2
  Segment part 25.            Intra module refs:   DataStageOut
                                                   NoData_Setup0
    -------------------------------------------------------------------------
CODE
  Relative segment, address: 0800A62C - 0800A62F (0x4 bytes), align: 2
  Segment part 26.            Intra module refs:   DataStageOut
                                                   NoData_Setup0
    -------------------------------------------------------------------------
CODE
  Relative segment, address: 0800A630 - 0800A633 (0x4 bytes), align: 2
  Segment part 27.            Intra module refs:   DataStageIn
                                                   DataStageOut
                                                   NoData_Setup0
    -------------------------------------------------------------------------
CODE
  Relative segment, address: 0800A634 - 0800A637 (0x4 bytes), align: 2
  Segment part 28.            Intra module refs:   DataStageIn
                                                   DataStageOut
                                                   NoData_Setup0
    -------------------------------------------------------------------------
CODE
  Relative segment, address: 0800A638 - 0800A893 (0x25c bytes), align: 2
  Segment part 29.            Intra module refs:   Setup0_Process
           LOCAL                   ADDRESS         
           =====                   =======         
           Data_Setup0             0800A639 
               stack 1 = 00000000 ( 00000024 )
    -------------------------------------------------------------------------
CODE
  Relative segment, address: 0800A894 - 0800A897 (0x4 bytes), align: 2
  Segment part 30.            Intra module refs:   Data_Setup0
    -------------------------------------------------------------------------
CODE
  Relative segment, address: 0800A898 - 0800A89B (0x4 bytes), align: 2
  Segment part 31.            Intra module refs:   Data_Setup0
    -------------------------------------------------------------------------
CODE
  Relative segment, address: 0800A89C - 0800A89F (0x4 bytes), align: 2
  Segment part 32.            Intra module refs:   Data_Setup0
                                                   NoData_Setup0
    -------------------------------------------------------------------------
CODE
  Relative segment, address: 0800A8A0 - 0800A8A3 (0x4 bytes), align: 2
  Segment part 33.            Intra module refs:   Data_Setup0
    -------------------------------------------------------------------------
CODE
  Relative segment, address: 0800A8A4 - 0800A93B (0x98 bytes), align: 2
  Segment part 34.
           ENTRY                   ADDRESS         REF BY
           =====                   =======         ======
           Setup0_Process          0800A8A5        CTR_LP (usb_int)
               stack 1 = 00000000 ( 00000008 )
    -------------------------------------------------------------------------
CODE
  Relative segment, address: 0800A93C - 0800A93F (0x4 bytes), align: 2
  Segment part 35.            Intra module refs:   Setup0_Process
    -------------------------------------------------------------------------
CODE
  Relative segment, address: 0800A940 - 0800A9A9 (0x6a bytes), align: 2
  Segment part 36.
           ENTRY                   ADDRESS         REF BY
           =====                   =======         ======
           In0_Process             0800A941        CTR_LP (usb_int)
               stack 1 = 00000000 ( 00000008 )
    -------------------------------------------------------------------------
CODE
  Relative segment, address: 0800A9AC - 0800A9AF (0x4 bytes), align: 2
  Segment part 37.            Intra module refs:   In0_Process
    -------------------------------------------------------------------------
CODE
  Relative segment, address: 0800A9B0 - 0800AA01 (0x52 bytes), align: 2
  Segment part 38.
           ENTRY                   ADDRESS         REF BY
           =====                   =======         ======
           Out0_Process            0800A9B1        CTR_LP (usb_int)
               stack 1 = 00000000 ( 00000008 )
    -------------------------------------------------------------------------
CODE
  Relative segment, address: 0800AA04 - 0800AA07 (0x4 bytes), align: 2
  Segment part 39.            Intra module refs:   In0_Process
                                                   Out0_Process
    -------------------------------------------------------------------------
CODE
  Relative segment, address: 0800AA08 - 0800AA41 (0x3a bytes), align: 2
  Segment part 40.            Intra module refs:   In0_Process
                                                   Out0_Process
                                                   Setup0_Process
           ENTRY                   ADDRESS         REF BY
           =====                   =======         ======
           Post0_Process           0800AA09 
               stack 1 = 00000000 ( 00000004 )
    -------------------------------------------------------------------------
CODE
  Relative segment, address: 0800AA44 - 0800AA47 (0x4 bytes), align: 2
  Segment part 41.            Intra module refs:   Post0_Process
    -------------------------------------------------------------------------
CODE
  Relative segment, address: 0800AA48 - 0800AA4B (0x4 bytes), align: 2
  Segment part 42.            Intra module refs:   Data_Setup0
                                                   Post0_Process
    -------------------------------------------------------------------------
CODE
  Relative segment, address: 0800AA4C - 0800AA4F (0x4 bytes), align: 2
  Segment part 43.            Intra module refs:   Post0_Process
    -------------------------------------------------------------------------
CODE
  Relative segment, address: 0800AA50 - 0800AA53 (0x4 bytes), align: 2
  Segment part 44.            Intra module refs:   In0_Process
                                                   Out0_Process
                                                   Post0_Process
                                                   Setup0_Process
    -------------------------------------------------------------------------
CODE
  Relative segment, address: 0800AA54 - 0800AAAB (0x58 bytes), align: 2
  Segment part 45.            Intra module refs:   In0_Process
           ENTRY                   ADDRESS         REF BY
           =====                   =======         ======
           SetDeviceAddress        0800AA55        MASS_Reset (usb_prop)
               stack 1 = 00000000 ( 0000000C )
    -------------------------------------------------------------------------
CODE
  Relative segment, address: 0800AAAC - 0800AAAF (0x4 bytes), align: 2
  Segment part 46.            Intra module refs:   SetDeviceAddress
    -------------------------------------------------------------------------
CODE
  Relative segment, address: 0800AAB0 - 0800AAB3 (0x4 bytes), align: 2
  Segment part 47.            Intra module refs:   SetDeviceAddress
    -------------------------------------------------------------------------
CODE
  Relative segment, address: 0800AAB4 - 0800AAB5 (0x2 bytes), align: 2
  Segment part 48.
           ENTRY                   ADDRESS         REF BY
           =====                   =======         ======
           NOP_Process             0800AAB5        MASS_init (usb_prop)
                                                   Segment part 5 (usb_istr)
                                                   Segment part 7 (usb_istr)
                                                   Segment part 8 (usb_prop)

    *************************************************************************

  FILE NAME : E:\My File\other\DSO\DS0201_OpenSource\DS0201_APP\project\EWARM\Debug_FLASH\Obj\usb_desc.r79
  PROGRAM MODULE, NAME : usb_desc

  SEGMENTS IN THE MODULE
  ======================
DATA_C
  Relative segment, address: 0800CE34 - 0800CE47 (0x14 bytes), align: 2
  Segment part 2.
           ENTRY                   ADDRESS         REF BY
           =====                   =======         ======
           MASS_DeviceDescriptor   0800CE34        Segment part 10 (usb_prop)
    -------------------------------------------------------------------------
DATA_C
  Relative segment, address: 0800CE48 - 0800CE67 (0x20 bytes), align: 2
  Segment part 3.
           ENTRY                   ADDRESS         REF BY
           =====                   =======         ======
           MASS_ConfigDescriptor   0800CE48        MASS_init (usb_prop)
                                                   Segment part 12 (usb_prop)
    -------------------------------------------------------------------------
DATA_C
  Relative segment, address: 0800CE68 - 0800CE6B (0x4 bytes), align: 2
  Segment part 4.
           ENTRY                   ADDRESS         REF BY
           =====                   =======         ======
           MASS_StringLangID       0800CE68        Segment part 14 (usb_prop)
    -------------------------------------------------------------------------
DATA_C
  Relative segment, address: 0800CE6C - 0800CE93 (0x28 bytes), align: 2
  Segment part 5.
           ENTRY                   ADDRESS         REF BY
           =====                   =======         ======
           MASS_StringVendor       0800CE6C        Segment part 14 (usb_prop)
    -------------------------------------------------------------------------
DATA_C
  Relative segment, address: 0800CE94 - 0800CEBB (0x28 bytes), align: 2
  Segment part 6.
           ENTRY                   ADDRESS         REF BY
           =====                   =======         ======
           MASS_StringProduct      0800CE94        Segment part 14 (usb_prop)
    -------------------------------------------------------------------------
DATA_C
  Relative segment, address: 0800CEBC - 0800CED7 (0x1c bytes), align: 2
  Segment part 7.
           ENTRY                   ADDRESS         REF BY
           =====                   =======         ======
           MASS_StringSerial       0800CEBC        Segment part 14 (usb_prop)
    -------------------------------------------------------------------------
DATA_C
  Relative segment, address: 0800CED8 - 0800CEE7 (0x10 bytes), align: 2
  Segment part 8.
           ENTRY                   ADDRESS         REF BY
           =====                   =======         ======
           MASS_StringInterface    0800CED8        Segment part 14 (usb_prop)

    *************************************************************************

  FILE NAME : E:\My File\other\DSO\DS0201_OpenSource\DS0201_APP\project\EWARM\Debug_FLASH\Obj\usb_endp.r79
  PROGRAM MODULE, NAME : usb_endp

  SEGMENTS IN THE MODULE
  ======================
CODE
  Relative segment, address: 0800AAB8 - 0800AABF (0x8 bytes), align: 2
  Segment part 2.
           ENTRY                   ADDRESS         REF BY
           =====                   =======         ======
           EP1_IN_Callback         0800AAB9        Segment part 5 (usb_istr)
               stack 1 = 00000000 ( 00000004 )
    -------------------------------------------------------------------------
CODE
  Relative segment, address: 0800AAC0 - 0800AAC7 (0x8 bytes), align: 2
  Segment part 3.
           ENTRY                   ADDRESS         REF BY
           =====                   =======         ======
           EP2_OUT_Callback        0800AAC1        Segment part 7 (usb_istr)
               stack 1 = 00000000 ( 00000004 )

    *************************************************************************

  FILE NAME : E:\My File\other\DSO\DS0201_OpenSource\DS0201_APP\project\EWARM\Debug_FLASH\Obj\usb_init.r79
  PROGRAM MODULE, NAME : usb_init

  SEGMENTS IN THE MODULE
  ======================
DATA_Z
  Relative segment, address: 20002A87 - 20002A87 (0x1 bytes), align: 0
  Segment part 2.
           ENTRY                   ADDRESS         REF BY
           =====                   =======         ======
           EPindex                 20002A87        Segment part 13 (usb_int)
    -------------------------------------------------------------------------
DATA_Z
  Relative segment, address: 20002A18 - 20002A1B (0x4 bytes), align: 2
  Segment part 3.             Intra module refs:   USB_Init
           ENTRY                   ADDRESS         REF BY
           =====                   =======         ======
           pInformation            20002A18        Segment part 20 (usb_core)
                                                   Segment part 28 (usb_core)
                                                   Segment part 31 (usb_prop)
                                                   Segment part 33 (usb_core)
                                                   Segment part 44 (usb_core)
                                                   Segment part 9 (usb_core)
    -------------------------------------------------------------------------
DATA_Z
  Relative segment, address: 20002A1C - 20002A1F (0x4 bytes), align: 2
  Segment part 4.             Intra module refs:   USB_Init
           ENTRY                   ADDRESS         REF BY
           =====                   =======         ======
           pProperty               20002A1C        Segment part 32 (usb_core)
                                                   Segment part 39 (usb_core)
                                                   Segment part 7 (usb_core)
    -------------------------------------------------------------------------
DATA_Z
  Relative segment, address: 20002A6C - 20002A6D (0x2 bytes), align: 1
  Segment part 6.
           ENTRY                   ADDRESS         REF BY
           =====                   =======         ======
           wInterrupt_Mask         20002A6C        MASS_init (usb_prop)
                                                   USB_Istr (usb_istr)
    -------------------------------------------------------------------------
DATA_Z
  Relative segment, address: 20002A20 - 20002A3B (0x1c bytes), align: 2
  Segment part 7.             Intra module refs:   USB_Init
           ENTRY                   ADDRESS         REF BY
           =====                   =======         ======
           Device_Info             20002A20        MASS_Reset (usb_prop)
    -------------------------------------------------------------------------
DATA_Z
  Relative segment, address: 20002A3C - 20002A3F (0x4 bytes), align: 2
  Segment part 8.             Intra module refs:   USB_Init
           ENTRY                   ADDRESS         REF BY
           =====                   =======         ======
           pUser_Standard_Requests
                                   20002A3C        Segment part 10 (usb_core)
                                                   Segment part 18 (usb_core)
                                                   Segment part 37 (usb_core)
    -------------------------------------------------------------------------
CODE
  Relative segment, address: 0800AAC8 - 0800AB07 (0x40 bytes), align: 2
  Segment part 9.
           ENTRY                   ADDRESS         REF BY
           =====                   =======         ======
           USB_Init                0800AAC9        main (main)
               stack 1 = 00000000 ( 00000004 )

    *************************************************************************

  FILE NAME : E:\My File\other\DSO\DS0201_OpenSource\DS0201_APP\project\EWARM\Debug_FLASH\Obj\usb_int.r79
  PROGRAM MODULE, NAME : usb_int

  SEGMENTS IN THE MODULE
  ======================
DATA_Z
  Relative segment, address: 20002A6E - 20002A6F (0x2 bytes), align: 1
  Segment part 2.             Intra module refs:   CTR_LP
           ENTRY                   ADDRESS         REF BY
           =====                   =======         ======
           SaveRState              20002A6E        Segment part 23 (usb_core)
                                                   Segment part 42 (usb_core)
    -------------------------------------------------------------------------
DATA_Z
  Relative segment, address: 20002A70 - 20002A71 (0x2 bytes), align: 1
  Segment part 3.             Intra module refs:   CTR_LP
           ENTRY                   ADDRESS         REF BY
           =====                   =======         ======
           SaveTState              20002A70        Segment part 27 (usb_core)
                                                   Segment part 43 (usb_core)
    -------------------------------------------------------------------------
CODE
  Relative segment, address: 0800AB08 - 0800ACEF (0x1e8 bytes), align: 2
  Segment part 4.
           ENTRY                   ADDRESS         REF BY
           =====                   =======         ======
           CTR_LP                  0800AB09        USB_Istr (usb_istr)
               stack 1 = 00000000 ( 00000008 )
    -------------------------------------------------------------------------
CODE
  Relative segment, address: 0800ACF0 - 0800AD8F (0xa0 bytes), align: 2
  Segment part 5.
           ENTRY                   ADDRESS         REF BY
           =====                   =======         ======
           CTR_HP                  0800ACF1        USB_HP_CAN_TX_IRQHandler (stm32f10x_it)
               stack 1 = 00000000 ( 00000008 )
    -------------------------------------------------------------------------
CODE
  Relative segment, address: 0800AD90 - 0800AD93 (0x4 bytes), align: 2
  Segment part 6.             Intra module refs:   CTR_HP
                                                   CTR_LP
    -------------------------------------------------------------------------
CODE
  Relative segment, address: 0800AD94 - 0800AD97 (0x4 bytes), align: 2
  Segment part 7.             Intra module refs:   CTR_HP
                                                   CTR_LP
    -------------------------------------------------------------------------
CODE
  Relative segment, address: 0800AD98 - 0800AD9B (0x4 bytes), align: 2
  Segment part 8.             Intra module refs:   CTR_HP
                                                   CTR_LP
    -------------------------------------------------------------------------
CODE
  Relative segment, address: 0800AD9C - 0800AD9F (0x4 bytes), align: 2
  Segment part 9.             Intra module refs:   CTR_HP
                                                   CTR_LP
    -------------------------------------------------------------------------
CODE
  Relative segment, address: 0800ADA0 - 0800ADA3 (0x4 bytes), align: 2
  Segment part 10.            Intra module refs:   CTR_HP
                                                   CTR_LP
    -------------------------------------------------------------------------
CODE
  Relative segment, address: 0800ADA4 - 0800ADA7 (0x4 bytes), align: 2
  Segment part 11.            Intra module refs:   CTR_HP
                                                   CTR_LP
    -------------------------------------------------------------------------
CODE
  Relative segment, address: 0800ADA8 - 0800ADAB (0x4 bytes), align: 2
  Segment part 12.            Intra module refs:   CTR_HP
                                                   CTR_LP
    -------------------------------------------------------------------------
CODE
  Relative segment, address: 0800ADAC - 0800ADAF (0x4 bytes), align: 2
  Segment part 13.            Intra module refs:   CTR_HP
                                                   CTR_LP
    -------------------------------------------------------------------------
CODE
  Relative segment, address: 0800ADB0 - 0800ADB3 (0x4 bytes), align: 2
  Segment part 14.            Intra module refs:   CTR_HP
                                                   CTR_LP

    *************************************************************************

  FILE NAME : E:\My File\other\DSO\DS0201_OpenSource\DS0201_APP\project\EWARM\Debug_FLASH\Obj\usb_istr.r79
  PROGRAM MODULE, NAME : usb_istr

  SEGMENTS IN THE MODULE
  ======================
DATA_Z
  Relative segment, address: 20002A72 - 20002A73 (0x2 bytes), align: 1
  Segment part 2.             Intra module refs:   USB_Istr
           ENTRY                   ADDRESS         REF BY
           =====                   =======         ======
           wIstr                   20002A72        Segment part 8 (usb_int)
    -------------------------------------------------------------------------
DATA_I
  Relative segment, address: 200001F0 - 2000020B (0x1c bytes), align: 2
  Segment part 4.
           ENTRY                   ADDRESS         REF BY
           =====                   =======         ======
           pEpInt_IN               200001F0        Segment part 14 (usb_int)
    -------------------------------------------------------------------------
DATA_I
  Relative segment, address: 2000020C - 20000227 (0x1c bytes), align: 2
  Segment part 6.
           ENTRY                   ADDRESS         REF BY
           =====                   =======         ======
           pEpInt_OUT              2000020C        Segment part 10 (usb_int)
    -------------------------------------------------------------------------
CODE
  Relative segment, address: 0800ADB4 - 0800ADFF (0x4c bytes), align: 2
  Segment part 8.
           ENTRY                   ADDRESS         REF BY
           =====                   =======         ======
           USB_Istr                0800ADB5        USB_LP_CAN_RX0_IRQHandler (stm32f10x_it)
               stack 1 = 00000000 ( 00000004 )
    -------------------------------------------------------------------------
DATA_ID
  Relative segment, address: 0800B990 - 0800B9AB (0x1c bytes), align: 2
  Segment part 5.             Intra module refs:   pEpInt_IN
    -------------------------------------------------------------------------
DATA_ID
  Relative segment, address: 0800B9AC - 0800B9C7 (0x1c bytes), align: 2
  Segment part 7.             Intra module refs:   pEpInt_OUT

    *************************************************************************

  FILE NAME : E:\My File\other\DSO\DS0201_OpenSource\DS0201_APP\project\EWARM\Debug_FLASH\Obj\usb_mem.r79
  PROGRAM MODULE, NAME : usb_mem

  SEGMENTS IN THE MODULE
  ======================
CODE
  Relative segment, address: 0800AE00 - 0800AE49 (0x4a bytes), align: 2
  Segment part 2.
           ENTRY                   ADDRESS         REF BY
           =====                   =======         ======
           UserToPMABufferCopy     0800AE01        DataStageIn (usb_core)
                                                   Read_Memory (memory)
                                                   Set_CSW (usb_bot)
                                                   Transfer_Data_Request (usb_bot)
               stack 1 = 00000000 ( 0000001C )
    -------------------------------------------------------------------------
CODE
  Relative segment, address: 0800AE4C - 0800AE7D (0x32 bytes), align: 2
  Segment part 3.
           ENTRY                   ADDRESS         REF BY
           =====                   =======         ======
           PMAToUserBufferCopy     0800AE4D        DataStageOut (usb_core)
                                                   Mass_Storage_Out (usb_bot)
               stack 1 = 00000000 ( 00000010 )
    -------------------------------------------------------------------------
CODE
  Relative segment, address: 0800AE80 - 0800AE83 (0x4 bytes), align: 2
  Segment part 4.             Intra module refs:   PMAToUserBufferCopy
                                                   UserToPMABufferCopy

    *************************************************************************

  FILE NAME : E:\My File\other\DSO\DS0201_OpenSource\DS0201_APP\project\EWARM\Debug_FLASH\Obj\usb_prop.r79
  PROGRAM MODULE, NAME : usb_prop

  SEGMENTS IN THE MODULE
  ======================
DATA_Z
  Relative segment, address: 20002A40 - 20002A43 (0x4 bytes), align: 2
  Segment part 2.             Intra module refs:   Get_Max_Lun
           ENTRY                   ADDRESS         REF BY
           =====                   =======         ======
           Max_Lun                 20002A40 
    -------------------------------------------------------------------------
DATA_I
  Relative segment, address: 200002C5 - 200002C6 (0x2 bytes), align: 0
  Segment part 3.
           ENTRY                   ADDRESS         REF BY
           =====                   =======         ======
           Device_Table            200002C5        Segment part 14 (usb_core)
                                                   Segment part 31 (usb_core)
                                                   Segment part 46 (usb_core)
                                                   Standard_SetConfiguration (usb_core)
    -------------------------------------------------------------------------
DATA_I
  Relative segment, address: 20000228 - 20000257 (0x30 bytes), align: 2
  Segment part 5.             Intra module refs:   MASS_Reset
           ENTRY                   ADDRESS         REF BY
           =====                   =======         ======
           Device_Property         20000228        Segment part 12 (usb_core)
                                                   Segment part 41 (usb_core)
                                                   USB_Init (usb_init)
                                                   USB_Istr (usb_istr)
    -------------------------------------------------------------------------
DATA_I
  Relative segment, address: 20000258 - 2000027B (0x24 bytes), align: 2
  Segment part 7.
           ENTRY                   ADDRESS         REF BY
           =====                   =======         ======
           User_Standard_Requests
                                   20000258        USB_Init (usb_init)
    -------------------------------------------------------------------------
DATA_I
  Relative segment, address: 2000027C - 20000283 (0x8 bytes), align: 2
  Segment part 9.             Intra module refs:   MASS_GetDeviceDescriptor
           ENTRY                   ADDRESS         REF BY
           =====                   =======         ======
           Device_Descriptor       2000027C 
    -------------------------------------------------------------------------
DATA_I
  Relative segment, address: 20000284 - 2000028B (0x8 bytes), align: 2
  Segment part 11.            Intra module refs:   MASS_GetConfigDescriptor
           ENTRY                   ADDRESS         REF BY
           =====                   =======         ======
           Config_Descriptor       20000284 
    -------------------------------------------------------------------------
DATA_I
  Relative segment, address: 2000028C - 200002B3 (0x28 bytes), align: 2
  Segment part 13.            Intra module refs:   MASS_GetStringDescriptor
           ENTRY                   ADDRESS         REF BY
           =====                   =======         ======
           String_Descriptor       2000028C 
    -------------------------------------------------------------------------
CODE
  Relative segment, address: 0800AE84 - 0800AEA3 (0x20 bytes), align: 2
  Segment part 15.            Intra module refs:   Segment part 8
           ENTRY                   ADDRESS         REF BY
           =====                   =======         ======
           Mass_Storage_SetConfiguration
                                   0800AE85 
               stack 1 = 00000000 ( 00000004 )
    -------------------------------------------------------------------------
CODE
  Relative segment, address: 0800AEA4 - 0800AEB7 (0x14 bytes), align: 2
  Segment part 16.            Intra module refs:   Segment part 8
           ENTRY                   ADDRESS         REF BY
           =====                   =======         ======
           Mass_Storage_ClearFeature
                                   0800AEA5 
               stack 1 = 00000000 ( 00000004 )
    -------------------------------------------------------------------------
CODE
  Relative segment, address: 0800AEB8 - 0800AF13 (0x5c bytes), align: 2
  Segment part 17.            Intra module refs:   Segment part 6
           ENTRY                   ADDRESS         REF BY
           =====                   =======         ======
           MASS_init               0800AEB9 
               stack 1 = 00000000 ( 00000008 )
    -------------------------------------------------------------------------
CODE
  Relative segment, address: 0800AF14 - 0800AFDF (0xcc bytes), align: 2
  Segment part 18.            Intra module refs:   Segment part 6
           ENTRY                   ADDRESS         REF BY
           =====                   =======         ======
           MASS_Reset              0800AF15 
               stack 1 = 00000000 ( 00000004 )
    -------------------------------------------------------------------------
CODE
  Relative segment, address: 0800AFE0 - 0800AFE1 (0x2 bytes), align: 2
  Segment part 19.            Intra module refs:   Segment part 6
           ENTRY                   ADDRESS         REF BY
           =====                   =======         ======
           MASS_Status_In          0800AFE1 
    -------------------------------------------------------------------------
CODE
  Relative segment, address: 0800AFE4 - 0800AFE5 (0x2 bytes), align: 2
  Segment part 20.            Intra module refs:   Segment part 6
           ENTRY                   ADDRESS         REF BY
           =====                   =======         ======
           MASS_Status_Out         0800AFE5 
    -------------------------------------------------------------------------
CODE
  Relative segment, address: 0800AFE8 - 0800B04F (0x68 bytes), align: 2
  Segment part 21.            Intra module refs:   Segment part 6
           ENTRY                   ADDRESS         REF BY
           =====                   =======         ======
           MASS_Data_Setup         0800AFE9 
               stack 1 = 00000000 ( 0000000C )
    -------------------------------------------------------------------------
CODE
  Relative segment, address: 0800B050 - 0800B0A3 (0x54 bytes), align: 2
  Segment part 22.            Intra module refs:   Segment part 6
           ENTRY                   ADDRESS         REF BY
           =====                   =======         ======
           MASS_NoData_Setup       0800B051 
               stack 1 = 00000000 ( 00000008 )
    -------------------------------------------------------------------------
CODE
  Relative segment, address: 0800B0A4 - 0800B0A7 (0x4 bytes), align: 2
  Segment part 23.            Intra module refs:   MASS_NoData_Setup
                                                   MASS_Reset
                                                   Mass_Storage_ClearFeature
    -------------------------------------------------------------------------
CODE
  Relative segment, address: 0800B0A8 - 0800B0AB (0x4 bytes), align: 2
  Segment part 24.            Intra module refs:   MASS_NoData_Setup
                                                   MASS_Reset
                                                   Mass_Storage_ClearFeature
    -------------------------------------------------------------------------
CODE
  Relative segment, address: 0800B0AC - 0800B0AF (0x4 bytes), align: 2
  Segment part 25.            Intra module refs:   MASS_NoData_Setup
                                                   MASS_Reset
                                                   Mass_Storage_SetConfiguration
    -------------------------------------------------------------------------
CODE
  Relative segment, address: 0800B0B0 - 0800B0C5 (0x16 bytes), align: 2
  Segment part 26.            Intra module refs:   Segment part 6
           ENTRY                   ADDRESS         REF BY
           =====                   =======         ======
           MASS_Get_Interface_Setting
                                   0800B0B1 
    -------------------------------------------------------------------------
CODE
  Relative segment, address: 0800B0C8 - 0800B0DB (0x14 bytes), align: 2
  Segment part 27.            Intra module refs:   Segment part 6
           ENTRY                   ADDRESS         REF BY
           =====                   =======         ======
           MASS_GetDeviceDescriptor
                                   0800B0C9 
               stack 1 = 00000000 ( 00000008 )
    -------------------------------------------------------------------------
CODE
  Relative segment, address: 0800B0DC - 0800B0EF (0x14 bytes), align: 2
  Segment part 28.            Intra module refs:   Segment part 6
           ENTRY                   ADDRESS         REF BY
           =====                   =======         ======
           MASS_GetConfigDescriptor
                                   0800B0DD 
               stack 1 = 00000000 ( 00000008 )
    -------------------------------------------------------------------------
CODE
  Relative segment, address: 0800B0F0 - 0800B113 (0x24 bytes), align: 2
  Segment part 29.            Intra module refs:   Segment part 6
           ENTRY                   ADDRESS         REF BY
           =====                   =======         ======
           MASS_GetStringDescriptor
                                   0800B0F1 
               stack 1 = 00000000 ( 0000000C )
    -------------------------------------------------------------------------
CODE
  Relative segment, address: 0800B114 - 0800B12F (0x1c bytes), align: 2
  Segment part 30.            Intra module refs:   MASS_Data_Setup
           ENTRY                   ADDRESS         REF BY
           =====                   =======         ======
           Get_Max_Lun             0800B115 
    -------------------------------------------------------------------------
CODE
  Relative segment, address: 0800B130 - 0800B133 (0x4 bytes), align: 2
  Segment part 31.            Intra module refs:   Get_Max_Lun
                                                   MASS_Data_Setup
                                                   MASS_GetStringDescriptor
                                                   MASS_NoData_Setup
                                                   MASS_init
                                                   Mass_Storage_SetConfiguration
    -------------------------------------------------------------------------
DATA_ID
  Relative segment, address: 0800BA65 - 0800BA66 (0x2 bytes), align: 0
  Segment part 4.             Intra module refs:   Device_Table
    -------------------------------------------------------------------------
DATA_ID
  Relative segment, address: 0800B9C8 - 0800B9F7 (0x30 bytes), align: 2
  Segment part 6.             Intra module refs:   Device_Property
    -------------------------------------------------------------------------
DATA_ID
  Relative segment, address: 0800B9F8 - 0800BA1B (0x24 bytes), align: 2
  Segment part 8.             Intra module refs:   User_Standard_Requests
    -------------------------------------------------------------------------
DATA_ID
  Relative segment, address: 0800BA1C - 0800BA23 (0x8 bytes), align: 2
  Segment part 10.            Intra module refs:   Device_Descriptor
    -------------------------------------------------------------------------
DATA_ID
  Relative segment, address: 0800BA24 - 0800BA2B (0x8 bytes), align: 2
  Segment part 12.            Intra module refs:   Config_Descriptor
    -------------------------------------------------------------------------
DATA_ID
  Relative segment, address: 0800BA2C - 0800BA53 (0x28 bytes), align: 2
  Segment part 14.            Intra module refs:   String_Descriptor

    *************************************************************************

  FILE NAME : E:\My File\other\DSO\DS0201_OpenSource\DS0201_APP\project\EWARM\Debug_FLASH\Obj\usb_pwr.r79
  PROGRAM MODULE, NAME : usb_pwr

  SEGMENTS IN THE MODULE
  ======================
DATA_Z
  Relative segment, address: 20002A88 - 20002A88 (0x1 bytes), align: 0
  Segment part 2.
           ENTRY                   ADDRESS         REF BY
           =====                   =======         ======
           bDeviceState            20002A88        MASS_init (usb_prop)

    *************************************************************************

  FILE NAME : E:\My File\other\DSO\DS0201_OpenSource\DS0201_APP\project\EWARM\Debug_FLASH\Obj\usb_regs.r79
  PROGRAM MODULE, NAME : usb_regs

  SEGMENTS IN THE MODULE
  ======================
CODE
  Relative segment, address: 0800B134 - 0800B143 (0x10 bytes), align: 2
  Segment part 12.
           ENTRY                   ADDRESS         REF BY
           =====                   =======         ======
           SetBTABLE               0800B135        MASS_Reset (usb_prop)
    -------------------------------------------------------------------------
CODE
  Relative segment, address: 0800B144 - 0800B147 (0x4 bytes), align: 2
  Segment part 14.            Intra module refs:   SetBTABLE
    -------------------------------------------------------------------------
CODE
  Relative segment, address: 0800B148 - 0800B173 (0x2c bytes), align: 2
  Segment part 17.
           ENTRY                   ADDRESS         REF BY
           =====                   =======         ======
           SetEPType               0800B149        MASS_Reset (usb_prop)
               stack 1 = 00000000 ( 00000008 )
    -------------------------------------------------------------------------
CODE
  Relative segment, address: 0800B174 - 0800B1AB (0x38 bytes), align: 2
  Segment part 19.
           ENTRY                   ADDRESS         REF BY
           =====                   =======         ======
           SetEPTxStatus           0800B175        Bot_Abort (usb_bot)
                                                   MASS_Reset (usb_prop)
                                                   Read_Memory (memory)
                                                   Set_CSW (usb_bot)
                                                   Standard_ClearFeature (usb_core)
                                                   Transfer_Data_Request (usb_bot)
               stack 1 = 00000000 ( 00000004 )
    -------------------------------------------------------------------------
CODE
  Relative segment, address: 0800B1AC - 0800B1E3 (0x38 bytes), align: 2
  Segment part 20.
           ENTRY                   ADDRESS         REF BY
           =====                   =======         ======
           SetEPRxStatus           0800B1AD        Bot_Abort (usb_bot)
                                                   MASS_Reset (usb_prop)
                                                   Mass_Storage_In (usb_bot)
                                                   SCSI_Write10_Cmd (usb_scsi)
                                                   Write_Memory (memory)
               stack 1 = 00000000 ( 00000004 )
    -------------------------------------------------------------------------
CODE
  Relative segment, address: 0800B1E4 - 0800B1E7 (0x4 bytes), align: 2
  Segment part 25.            Intra module refs:   SetEPTxStatus
    -------------------------------------------------------------------------
CODE
  Relative segment, address: 0800B1E8 - 0800B213 (0x2c bytes), align: 2
  Segment part 26.
           ENTRY                   ADDRESS         REF BY
           =====                   =======         ======
           SetEPRxValid            0800B1E9        MASS_Reset (usb_prop)
    -------------------------------------------------------------------------
CODE
  Relative segment, address: 0800B214 - 0800B217 (0x4 bytes), align: 2
  Segment part 27.            Intra module refs:   SetEPRxStatus
                                                   SetEPRxValid
    -------------------------------------------------------------------------
CODE
  Relative segment, address: 0800B218 - 0800B239 (0x22 bytes), align: 2
  Segment part 30.
           ENTRY                   ADDRESS         REF BY
           =====                   =======         ======
           Clear_Status_Out        0800B219        MASS_Reset (usb_prop)
               stack 1 = 00000000 ( 00000004 )
    -------------------------------------------------------------------------
CODE
  Relative segment, address: 0800B23C - 0800B23F (0x4 bytes), align: 2
  Segment part 34.            Intra module refs:   Clear_Status_Out
    -------------------------------------------------------------------------
CODE
  Relative segment, address: 0800B240 - 0800B243 (0x4 bytes), align: 2
  Segment part 39.            Intra module refs:   Clear_Status_Out
                                                   SetEPRxStatus
                                                   SetEPRxValid
                                                   SetEPTxStatus
                                                   SetEPType
    -------------------------------------------------------------------------
CODE
  Relative segment, address: 0800B244 - 0800B27D (0x3a bytes), align: 2
  Segment part 42.
           ENTRY                   ADDRESS         REF BY
           =====                   =======         ======
           ClearDTOG_RX            0800B245        MASS_NoData_Setup (usb_prop)
                                                   Mass_Storage_SetConfiguration (usb_prop)
                                                   Standard_ClearFeature (usb_core)
               stack 1 = 00000000 ( 00000004 )
    -------------------------------------------------------------------------
CODE
  Relative segment, address: 0800B280 - 0800B2B9 (0x3a bytes), align: 2
  Segment part 43.
           ENTRY                   ADDRESS         REF BY
           =====                   =======         ======
           ClearDTOG_TX            0800B281        MASS_NoData_Setup (usb_prop)
                                                   Mass_Storage_SetConfiguration (usb_prop)
                                                   Standard_ClearFeature (usb_core)
               stack 1 = 00000000 ( 00000004 )
    -------------------------------------------------------------------------
CODE
  Relative segment, address: 0800B2BC - 0800B2BF (0x4 bytes), align: 2
  Segment part 45.            Intra module refs:   ClearDTOG_RX
                                                   ClearDTOG_TX
    -------------------------------------------------------------------------
CODE
  Relative segment, address: 0800B2C0 - 0800B2C3 (0x4 bytes), align: 2
  Segment part 47.            Intra module refs:   ClearDTOG_RX
                                                   ClearDTOG_TX
    -------------------------------------------------------------------------
CODE
  Relative segment, address: 0800B2C4 - 0800B2F1 (0x2e bytes), align: 2
  Segment part 48.
           ENTRY                   ADDRESS         REF BY
           =====                   =======         ======
           SetEPTxAddr             0800B2C5        MASS_Reset (usb_prop)
               stack 1 = 00000000 ( 00000004 )
    -------------------------------------------------------------------------
CODE
  Relative segment, address: 0800B2F4 - 0800B321 (0x2e bytes), align: 2
  Segment part 49.
           ENTRY                   ADDRESS         REF BY
           =====                   =======         ======
           SetEPRxAddr             0800B2F5        MASS_Reset (usb_prop)
               stack 1 = 00000000 ( 00000004 )
    -------------------------------------------------------------------------
CODE
  Relative segment, address: 0800B324 - 0800B33F (0x1c bytes), align: 2
  Segment part 50.
           ENTRY                   ADDRESS         REF BY
           =====                   =======         ======
           GetEPTxAddr             0800B325        DataStageIn (usb_core)
    -------------------------------------------------------------------------
CODE
  Relative segment, address: 0800B340 - 0800B35B (0x1c bytes), align: 2
  Segment part 51.
           ENTRY                   ADDRESS         REF BY
           =====                   =======         ======
           GetEPRxAddr             0800B341        DataStageOut (usb_core)
    -------------------------------------------------------------------------
CODE
  Relative segment, address: 0800B35C - 0800B37B (0x20 bytes), align: 2
  Segment part 52.
           ENTRY                   ADDRESS         REF BY
           =====                   =======         ======
           SetEPTxCount            0800B35D        DataStageIn (usb_core)
                                                   DataStageOut (usb_core)
                                                   Read_Memory (memory)
                                                   Set_CSW (usb_bot)
                                                   Transfer_Data_Request (usb_bot)
    -------------------------------------------------------------------------
CODE
  Relative segment, address: 0800B37C - 0800B3D5 (0x5a bytes), align: 2
  Segment part 54.
           ENTRY                   ADDRESS         REF BY
           =====                   =======         ======
           SetEPRxCount            0800B37D        MASS_Reset (usb_prop)
                                                   Post0_Process (usb_core)
                                                   Standard_ClearFeature (usb_core)
               stack 1 = 00000000 ( 00000008 )
    -------------------------------------------------------------------------
CODE
  Relative segment, address: 0800B3D8 - 0800B3F3 (0x1c bytes), align: 2
  Segment part 56.
           ENTRY                   ADDRESS         REF BY
           =====                   =======         ======
           GetEPRxCount            0800B3D9        Mass_Storage_Out (usb_bot)
    -------------------------------------------------------------------------
CODE
  Relative segment, address: 0800B3F4 - 0800B3F7 (0x4 bytes), align: 2
  Segment part 61.            Intra module refs:   GetEPTxAddr
                                                   SetEPTxAddr
    -------------------------------------------------------------------------
CODE
  Relative segment, address: 0800B3F8 - 0800B3FB (0x4 bytes), align: 2
  Segment part 63.            Intra module refs:   GetEPRxAddr
                                                   GetEPRxCount
                                                   GetEPTxAddr
                                                   SetEPRxAddr
                                                   SetEPRxCount
                                                   SetEPTxAddr
                                                   SetEPTxCount
    -------------------------------------------------------------------------
CODE
  Relative segment, address: 0800B3FC - 0800B3FF (0x4 bytes), align: 2
  Segment part 64.            Intra module refs:   GetEPRxAddr
                                                   SetEPRxAddr
    -------------------------------------------------------------------------
CODE
  Relative segment, address: 0800B400 - 0800B403 (0x4 bytes), align: 2
  Segment part 66.            Intra module refs:   SetEPTxCount
    -------------------------------------------------------------------------
CODE
  Relative segment, address: 0800B404 - 0800B407 (0x4 bytes), align: 2
  Segment part 67.            Intra module refs:   GetEPRxCount
                                                   SetEPRxCount
    -------------------------------------------------------------------------
CODE
  Relative segment, address: 0800B408 - 0800B41D (0x16 bytes), align: 2
  Segment part 80.
           ENTRY                   ADDRESS         REF BY
           =====                   =======         ======
           ByteSwap                0800B409        Setup0_Process (usb_core)

    *************************************************************************

  FILE NAME : E:\My File\other\DSO\DS0201_OpenSource\DS0201_APP\project\EWARM\Debug_FLASH\Obj\usb_scsi.r79
  PROGRAM MODULE, NAME : usb_scsi

  SEGMENTS IN THE MODULE
  ======================
DATA_Z
  Relative segment, address: 20002A44 - 20002A47 (0x4 bytes), align: 2
  Segment part 2.
           ENTRY                   ADDRESS         REF BY
           =====                   =======         ======
           Mass_Memory_Size        20002A44        Segment part 18 (memory)
    -------------------------------------------------------------------------
DATA_Z
  Relative segment, address: 20002A48 - 20002A4B (0x4 bytes), align: 2
  Segment part 3.             Intra module refs:   Segment part 9
           ENTRY                   ADDRESS         REF BY
           =====                   =======         ======
           Mass_Block_Size         20002A48        Segment part 17 (memory)
    -------------------------------------------------------------------------
DATA_Z
  Relative segment, address: 20002A4C - 20002A4F (0x4 bytes), align: 2
  Segment part 4.             Intra module refs:   Segment part 8
           ENTRY                   ADDRESS         REF BY
           =====                   =======         ======
           Mass_Block_Count        20002A4C        Get_Medium_Characteristics (memory)
    -------------------------------------------------------------------------
CODE
  Relative segment, address: 0800B420 - 0800B463 (0x44 bytes), align: 2
  Segment part 5.
           ENTRY                   ADDRESS         REF BY
           =====                   =======         ======
           SCSI_Inquiry_Cmd        0800B421        CBW_Decode (usb_bot)
               stack 1 = 00000000 ( 0000000C )
    -------------------------------------------------------------------------
CODE
  Relative segment, address: 0800B464 - 0800B4D3 (0x70 bytes), align: 2
  Segment part 6.
           ENTRY                   ADDRESS         REF BY
           =====                   =======         ======
           SCSI_ReadFormatCapacity_Cmd
                                   0800B465        CBW_Decode (usb_bot)
               stack 1 = 00000000 ( 00000004 )
    -------------------------------------------------------------------------
CODE
  Relative segment, address: 0800B4D4 - 0800B553 (0x80 bytes), align: 2
  Segment part 7.
           ENTRY                   ADDRESS         REF BY
           =====                   =======         ======
           SCSI_ReadCapacity10_Cmd
                                   0800B4D5        CBW_Decode (usb_bot)
               stack 1 = 00000000 ( 00000004 )
    -------------------------------------------------------------------------
CODE
  Relative segment, address: 0800B554 - 0800B557 (0x4 bytes), align: 2
  Segment part 8.             Intra module refs:   SCSI_ReadCapacity10_Cmd
                                                   SCSI_ReadFormatCapacity_Cmd
    -------------------------------------------------------------------------
CODE
  Relative segment, address: 0800B558 - 0800B55B (0x4 bytes), align: 2
  Segment part 9.             Intra module refs:   SCSI_ReadCapacity10_Cmd
                                                   SCSI_ReadFormatCapacity_Cmd
    -------------------------------------------------------------------------
CODE
  Relative segment, address: 0800B55C - 0800B56B (0x10 bytes), align: 2
  Segment part 10.
           ENTRY                   ADDRESS         REF BY
           =====                   =======         ======
           SCSI_ModeSense6_Cmd     0800B55D        CBW_Decode (usb_bot)
               stack 1 = 00000000 ( 00000004 )
    -------------------------------------------------------------------------
CODE
  Relative segment, address: 0800B56C - 0800B57B (0x10 bytes), align: 2
  Segment part 11.
           ENTRY                   ADDRESS         REF BY
           =====                   =======         ======
           SCSI_ModeSense10_Cmd    0800B56D        CBW_Decode (usb_bot)
               stack 1 = 00000000 ( 00000004 )
    -------------------------------------------------------------------------
CODE
  Relative segment, address: 0800B57C - 0800B5A7 (0x2c bytes), align: 2
  Segment part 12.
           ENTRY                   ADDRESS         REF BY
           =====                   =======         ======
           SCSI_RequestSense_Cmd   0800B57D        CBW_Decode (usb_bot)
               stack 1 = 00000000 ( 00000008 )
    -------------------------------------------------------------------------
CODE
  Relative segment, address: 0800B5A8 - 0800B5AB (0x4 bytes), align: 2
  Segment part 13.            Intra module refs:   SCSI_Inquiry_Cmd
                                                   SCSI_RequestSense_Cmd
    -------------------------------------------------------------------------
CODE
  Relative segment, address: 0800B5AC - 0800B5BF (0x14 bytes), align: 2
  Segment part 14.            Intra module refs:   SCSI_Invalid_Cmd
                                                   SCSI_Read10_Cmd
                                                   SCSI_Valid_Cmd
                                                   SCSI_Verify10_Cmd
                                                   SCSI_Write10_Cmd
           ENTRY                   ADDRESS         REF BY
           =====                   =======         ======
           Set_Scsi_Sense_Data     0800B5AD        Address_Management_Test (memory)
                                                   CBW_Decode (usb_bot)
                                                   Mass_Storage_Out (usb_bot)
    -------------------------------------------------------------------------
CODE
  Relative segment, address: 0800B5C0 - 0800B5CB (0xc bytes), align: 2
  Segment part 15.
           ENTRY                   ADDRESS         REF BY
           =====                   =======         ======
           SCSI_Start_Stop_Unit_Cmd
                                   0800B5C1        CBW_Decode (usb_bot)
               stack 1 = 00000000 ( 00000004 )
    -------------------------------------------------------------------------
CODE
  Relative segment, address: 0800B5CC - 0800B619 (0x4e bytes), align: 2
  Segment part 16.
           ENTRY                   ADDRESS         REF BY
           =====                   =======         ======
           SCSI_Read10_Cmd         0800B5CD        CBW_Decode (usb_bot)
                                                   Mass_Storage_In (usb_bot)
               stack 1 = 00000000 ( 00000004 )
    -------------------------------------------------------------------------
CODE
  Relative segment, address: 0800B61C - 0800B66F (0x54 bytes), align: 2
  Segment part 17.
           ENTRY                   ADDRESS         REF BY
           =====                   =======         ======
           SCSI_Write10_Cmd        0800B61D        CBW_Decode (usb_bot)
                                                   Mass_Storage_Out (usb_bot)
               stack 1 = 00000000 ( 00000004 )
    -------------------------------------------------------------------------
CODE
  Relative segment, address: 0800B670 - 0800B673 (0x4 bytes), align: 2
  Segment part 18.            Intra module refs:   SCSI_Read10_Cmd
                                                   SCSI_Write10_Cmd
    -------------------------------------------------------------------------
CODE
  Relative segment, address: 0800B674 - 0800B6A7 (0x34 bytes), align: 2
  Segment part 19.
           ENTRY                   ADDRESS         REF BY
           =====                   =======         ======
           SCSI_Verify10_Cmd       0800B675        CBW_Decode (usb_bot)
               stack 1 = 00000000 ( 00000004 )
    -------------------------------------------------------------------------
CODE
  Relative segment, address: 0800B6A8 - 0800B6AB (0x4 bytes), align: 2
  Segment part 20.            Intra module refs:   SCSI_Inquiry_Cmd
                                                   SCSI_Verify10_Cmd
    -------------------------------------------------------------------------
CODE
  Relative segment, address: 0800B6AC - 0800B6D7 (0x2c bytes), align: 2
  Segment part 21.
           ENTRY                   ADDRESS         REF BY
           =====                   =======         ======
           SCSI_Valid_Cmd          0800B6AD        CBW_Decode (usb_bot)
               stack 1 = 00000000 ( 00000004 )
    -------------------------------------------------------------------------
CODE
  Relative segment, address: 0800B6D8 - 0800B711 (0x3a bytes), align: 2
  Segment part 22.
           ENTRY                   ADDRESS         REF BY
           =====                   =======         ======
           SCSI_Invalid_Cmd        0800B6D9        CBW_Decode (usb_bot)
               stack 1 = 00000000 ( 00000004 )
    -------------------------------------------------------------------------
CODE
  Relative segment, address: 0800B714 - 0800B717 (0x4 bytes), align: 2
  Segment part 23.            Intra module refs:   SCSI_Invalid_Cmd
                                                   SCSI_Valid_Cmd
                                                   SCSI_Verify10_Cmd
    -------------------------------------------------------------------------
CODE
  Relative segment, address: 0800B718 - 0800B71B (0x4 bytes), align: 2
  Segment part 24.            Intra module refs:   SCSI_Invalid_Cmd
                                                   SCSI_Read10_Cmd
                                                   SCSI_Write10_Cmd

    *************************************************************************

  FILE NAME : D:\Program Files\Embedded Workbench 4.0 Evaluation\ARM\LIB\dl7mptnnl8n.r79
  LIBRARY MODULE, NAME : ?low_level_init

  SEGMENTS IN THE MODULE
  ======================
ICODE
  Relative segment, address: 080040EC - 080040EF (0x4 bytes), align: 2
  Segment part 2.
           ENTRY                   ADDRESS         REF BY
           =====                   =======         ======
           __low_level_init        080040ED        __program_start (?CMAIN)

    -------------------------------------------------------------------------
  LIBRARY MODULE, NAME : ?segment_init

  SEGMENTS IN THE MODULE
  ======================
ICODE
  Relative segment, address: 080040F0 - 0800411F (0x30 bytes), align: 2
  Segment part 2.
           ENTRY                   ADDRESS         REF BY
           =====                   =======         ======
           __segment_init          080040F1        __program_start (?CMAIN)
               stack 1 = 00000000 ( 00000008 )

    -------------------------------------------------------------------------
  LIBRARY MODULE, NAME : ?__dbg_break

  SEGMENTS IN THE MODULE
  ======================
CODE
  Relative segment, address: 0800B71C - 0800B71D (0x2 bytes), align: 2
  Segment part 2.
           ENTRY                   ADDRESS         REF BY
           =====                   =======         ======
           __DebugBreak            0800B71D        __exit (?__exit)

    -------------------------------------------------------------------------
  LIBRARY MODULE, NAME : ?__exit

  SEGMENTS IN THE MODULE
  ======================
CODE
  Relative segment, address: 0800B720 - 0800B731 (0x12 bytes), align: 2
  Segment part 2.
           ENTRY                   ADDRESS         REF BY
           =====                   =======         ======
           __exit                  0800B721        Segment part 5 (?_EXIT)
               stack 1 = 00000000 ( 0000000C )

    -------------------------------------------------------------------------
  LIBRARY MODULE, NAME : ?exit

  SEGMENTS IN THE MODULE
  ======================
CODE
  Relative segment, address: 0800B734 - 0800B737 (0x4 bytes), align: 2
  Segment part 2.
           ENTRY                   ADDRESS         REF BY
           =====                   =======         ======
           exit                    0800B735        _main (?CMAIN)
               stack 1 = 00000000 ( 00000004 )

    -------------------------------------------------------------------------
  LIBRARY MODULE, NAME : ?memcpy

  SEGMENTS IN THE MODULE
  ======================
CODE
  Relative segment, address: 0800B738 - 0800B74D (0x16 bytes), align: 2
  Segment part 3.
           ENTRY                   ADDRESS         REF BY
           =====                   =======         ======
           memcpy                  0800B739        __segment_init (?segment_init)
               stack 1 = 00000000 ( 00000008 )

    -------------------------------------------------------------------------
  LIBRARY MODULE, NAME : ?memset

  SEGMENTS IN THE MODULE
  ======================
CODE
  Relative segment, address: 0800B750 - 0800B761 (0x12 bytes), align: 2
  Segment part 3.
           ENTRY                   ADDRESS         REF BY
           =====                   =======         ======
           memset                  0800B751        __segment_init (?segment_init)
               stack 1 = 00000000 ( 00000008 )

    -------------------------------------------------------------------------
  LIBRARY MODULE, NAME : ?CMAIN

  SEGMENTS IN THE MODULE
  ======================
DIFUNCT
  Relative segment, address: 08004150, align: 2
  Segment part 0. ROOT.
    -------------------------------------------------------------------------
ICODE
  Relative segment, address: 08004120 - 08004133 (0x14 bytes), align: 2
  Segment part 1.
           ENTRY                   ADDRESS         REF BY
           =====                   =======         ======
           __program_start         08004121        Absolute parts (?ABS_ENTRY_MOD)
                                                   __vector_table (stm32f10x_vector)
    -------------------------------------------------------------------------
ICODE
  Relative segment, address: 08004134 - 0800414F (0x1c bytes), align: 2
  Segment part 3.             Intra module refs:   __program_start
           ENTRY                   ADDRESS         REF BY
           =====                   =======         ======
           _main                   0800413D 

    -------------------------------------------------------------------------
  LIBRARY MODULE, NAME : ?_EXIT

  SEGMENTS IN THE MODULE
  ======================
CODE
  Relative segment, address: 0800B764, align: 2
  Segment part 0.
           ENTRY                   ADDRESS         REF BY
           =====                   =======         ======
           _exit                   0800B765        _main (?CMAIN)
                                                   exit (?exit)
    -------------------------------------------------------------------------
CODE
  Relative segment, address: 0800B764 - 0800B76F (0xc bytes), align: 2
  Segment part 5.             Intra module refs:   _exit

    -------------------------------------------------------------------------
  LIBRARY MODULE, NAME : ?div_module

  SEGMENTS IN THE MODULE
  ======================
CODE
  Relative segment, address: 0800B770 - 0800B77B (0xc bytes), align: 2
  Segment part 2.
           ENTRY                   ADDRESS         REF BY
           =====                   =======         ======
           ??divu32_t              0800B771        Write_Memory (memory)
    -------------------------------------------------------------------------
CODE
  Relative segment, address: 0800B77C - 0800B787 (0xc bytes), align: 2
  Segment part 5.
           ENTRY                   ADDRESS         REF BY
           =====                   =======         ======
           ??div32_t               0800B77D        Char_to_Str (Calculate)
                                                   Erase_Dot_ti (Lcd)
                                                   Erase_Dot_v0 (Lcd)
                                                   Erase_Dot_vi (Lcd)
                                                   Erase_Dot_vt (Lcd)
                                                   Erase_SEG (Lcd)
                                                   Erase_Ti (Lcd)
                                                   Erase_Vi (Lcd)
                                                   Erase_View_Area (Lcd)
                                                   Erase_Vn (Lcd)
                                                   Int32String (Calculate)
                                                   Int32String_sign (Calculate)
                                                   Signal_Process (Function)




                ****************************************
                *                                      *
                *      SEGMENTS IN ADDRESS ORDER       *
                *                                      *
                ****************************************


SEGMENT              SPACE    START ADDRESS   END ADDRESS     SIZE  TYPE  ALIGN
=======              =====    =============   ===========     ====  ====  =====
INTVEC                             08004000 - 080040EB          EC   rel    2
ICODE                              080040EC - 0800414F          64   rel    2
DIFUNCT                                 08004150                     rel    2
CODE                               08004150 - 0800B787        7638   rel    2
INITTAB                            0800B788 - 0800B79F          18   rel    2
DATA_ID                            0800B7A0 - 0800BA66         2C7   rel    2
DATA_C                             0800BA68 - 0800CEE7        1480   rel    2
DATA_I                             20000000 - 200002C6         2C7   rel    2
DATA_Z                             200002C8 - 20002A88        27C1   rel    2
CSTACK                             20002A8C - 20003A8B        1000   rel    2

                ****************************************
                *                                      *
                *        END OF CROSS REFERENCE        *
                *                                      *
                ****************************************

 30 600 bytes of CODE  memory
 14 984 bytes of DATA  memory
  5 983 bytes of CONST memory

Errors: none
Warnings: none

